(lp0
(lp1
S'kind'
p2
aS'name'
p3
aS'density/KNCSS'
p4
aS'bugs'
p5
aS'NCSS'
p6
aa(lp7
S'project'
p8
aS''
p9
aS'5.9'
p10
aS'26'
p11
aS'4426'
p12
aa(lp13
S'package'
p14
aS'edu.uci.ics.crawler4j.crawler'
p15
aS'8.3'
p16
aS'5'
p17
aS'599'
p18
aa(lp19
S'package'
p20
aS'edu.uci.ics.crawler4j.frontier'
p21
aS'19.2'
p22
aS'9'
p23
aS'468'
p24
aa(lp25
S'package'
p26
aS'edu.uci.ics.crawler4j.url'
p27
aS'13.8'
p28
ag17
aS'362'
p29
aa.