(lp0
(lp1
(lp2
(S'priority'
p3
S'2'
p4
tp5
a(S'category'
p6
S'STYLE'
p7
tp8
a(S'abbrev'
p9
S'REC'
p10
tp11
a(S'type'
p12
S'REC_CATCH_EXCEPTION'
p13
tp14
a(S'tag'
p15
S'BugInstance'
p16
tp17
aa(lp18
(S'classname'
p19
S'edu.uci.ics.crawler4j.crawler.CrawlController$1'
p20
tp21
a(g15
S'Class'
p22
tp23
aa(lp24
(g19
S'edu.uci.ics.crawler4j.crawler.CrawlController$1'
p25
tp26
a(S'isStatic'
p27
S'false'
p28
tp29
a(S'name'
p30
S'run'
p31
tp32
a(S'signature'
p33
S'()V'
p34
tp35
a(g15
S'Method'
p36
tp37
aa(lp38
(S'endBytecode'
p39
S'538'
p40
tp41
a(S'end'
p42
S'244'
p43
tp44
a(S'sourcepath'
p45
S'edu/uci/ics/crawler4j/crawler/CrawlController.java'
p46
tp47
a(S'sourcefile'
p48
S'CrawlController.java'
p49
tp50
a(g19
S'edu.uci.ics.crawler4j.crawler.CrawlController$1'
p51
tp52
a(S'start'
p53
S'244'
p54
tp55
a(S'startBytecode'
p56
S'538'
p57
tp58
a(g15
S'SourceLine'
p59
tp60
aaa(lp61
(lp62
(g3
g4
tp63
a(g6
S'MALICIOUS_CODE'
p64
tp65
a(g9
S'EI'
p66
tp67
a(g12
S'EI_EXPOSE_REP'
p68
tp69
a(g15
g16
tp70
aa(lp71
(g19
S'edu.uci.ics.crawler4j.crawler.Page'
p72
tp73
a(g15
g22
tp74
aa(lp75
(g19
S'edu.uci.ics.crawler4j.crawler.Page'
p76
tp77
a(g27
S'false'
p78
tp79
a(g30
S'getContentData'
p80
tp81
a(g33
S'()[B'
p82
tp83
a(g15
g36
tp84
aa(lp85
(g19
S'edu.uci.ics.crawler4j.crawler.Page'
p86
tp87
a(g27
S'false'
p88
tp89
a(g30
S'contentData'
p90
tp91
a(g33
S'[B'
p92
tp93
a(g15
S'Field'
p94
tp95
aa(lp96
(g39
S'4'
p97
tp98
a(g42
S'141'
p99
tp100
a(g45
S'edu/uci/ics/crawler4j/crawler/Page.java'
p101
tp102
a(g48
S'Page.java'
p103
tp104
a(g19
S'edu.uci.ics.crawler4j.crawler.Page'
p105
tp106
a(g53
S'141'
p107
tp108
a(g56
g97
tp109
a(g15
g59
tp110
aaa(lp111
(lp112
(g3
g4
tp113
a(g6
S'MALICIOUS_CODE'
p114
tp115
a(g9
S'EI'
p116
tp117
a(g12
S'EI_EXPOSE_REP'
p118
tp119
a(g15
g16
tp120
aa(lp121
(g19
S'edu.uci.ics.crawler4j.crawler.Page'
p122
tp123
a(g15
g22
tp124
aa(lp125
(g19
S'edu.uci.ics.crawler4j.crawler.Page'
p126
tp127
a(g27
S'false'
p128
tp129
a(g30
S'getFetchResponseHeaders'
p130
tp131
a(g33
S'()[Lorg/apache/http/Header;'
p132
tp133
a(g15
g36
tp134
aa(lp135
(g19
S'edu.uci.ics.crawler4j.crawler.Page'
p136
tp137
a(g27
S'false'
p138
tp139
a(g30
S'fetchResponseHeaders'
p140
tp141
a(g33
S'[Lorg/apache/http/Header;'
p142
tp143
a(g15
g94
tp144
aa(lp145
(g39
g97
tp146
a(g42
S'119'
p147
tp148
a(g45
S'edu/uci/ics/crawler4j/crawler/Page.java'
p149
tp150
a(g48
S'Page.java'
p151
tp152
a(g19
S'edu.uci.ics.crawler4j.crawler.Page'
p153
tp154
a(g53
S'119'
p155
tp156
a(g56
g97
tp157
a(g15
g59
tp158
aaa(lp159
(lp160
(g3
g4
tp161
a(g6
S'MALICIOUS_CODE'
p162
tp163
a(g9
S'EI2'
p164
tp165
a(g12
S'EI_EXPOSE_REP2'
p166
tp167
a(g15
g16
tp168
aa(lp169
(g19
S'edu.uci.ics.crawler4j.crawler.Page'
p170
tp171
a(g15
g22
tp172
aa(lp173
(g19
S'edu.uci.ics.crawler4j.crawler.Page'
p174
tp175
a(g27
S'false'
p176
tp177
a(g30
S'setContentData'
p178
tp179
a(g33
S'([B)V'
p180
tp181
a(g15
g36
tp182
aa(lp183
(g19
S'edu.uci.ics.crawler4j.crawler.Page'
p184
tp185
a(g27
S'false'
p186
tp187
a(g30
S'contentData'
p188
tp189
a(g33
S'[B'
p190
tp191
a(g15
g94
tp192
aa(lp193
(S'pc'
p194
g4
tp195
a(S'register'
p196
S'1'
p197
tp198
a(S'role'
p199
S'LOCAL_VARIABLE_NAMED'
p200
tp201
a(g30
S'contentData'
p202
tp203
a(g15
S'LocalVariable'
p204
tp205
aa(lp206
(g39
g4
tp207
a(g42
S'145'
p208
tp209
a(g45
S'edu/uci/ics/crawler4j/crawler/Page.java'
p210
tp211
a(g48
S'Page.java'
p212
tp213
a(g19
S'edu.uci.ics.crawler4j.crawler.Page'
p214
tp215
a(g53
S'145'
p216
tp217
a(g56
g4
tp218
a(g15
g59
tp219
aaa(lp220
(lp221
(g3
g4
tp222
a(g6
S'MALICIOUS_CODE'
p223
tp224
a(g9
S'EI2'
p225
tp226
a(g12
S'EI_EXPOSE_REP2'
p227
tp228
a(g15
g16
tp229
aa(lp230
(g19
S'edu.uci.ics.crawler4j.crawler.Page'
p231
tp232
a(g15
g22
tp233
aa(lp234
(g19
S'edu.uci.ics.crawler4j.crawler.Page'
p235
tp236
a(g27
S'false'
p237
tp238
a(g30
S'setFetchResponseHeaders'
p239
tp240
a(g33
S'([Lorg/apache/http/Header;)V'
p241
tp242
a(g15
g36
tp243
aa(lp244
(g19
S'edu.uci.ics.crawler4j.crawler.Page'
p245
tp246
a(g27
S'false'
p247
tp248
a(g30
S'fetchResponseHeaders'
p249
tp250
a(g33
S'[Lorg/apache/http/Header;'
p251
tp252
a(g15
g94
tp253
aa(lp254
(g194
g4
tp255
a(g196
g197
tp256
a(g199
S'LOCAL_VARIABLE_NAMED'
p257
tp258
a(g30
S'headers'
p259
tp260
a(g15
g204
tp261
aa(lp262
(g39
g4
tp263
a(g42
S'123'
p264
tp265
a(g45
S'edu/uci/ics/crawler4j/crawler/Page.java'
p266
tp267
a(g48
S'Page.java'
p268
tp269
a(g19
S'edu.uci.ics.crawler4j.crawler.Page'
p270
tp271
a(g53
S'123'
p272
tp273
a(g56
g4
tp274
a(g15
g59
tp275
aaa(lp276
(lp277
(g3
g4
tp278
a(g6
S'MT_CORRECTNESS'
p279
tp280
a(g9
S'NN'
p281
tp282
a(g12
S'NN_NAKED_NOTIFY'
p283
tp284
a(g15
g16
tp285
aa(lp286
(g19
S'edu.uci.ics.crawler4j.fetcher.IdleConnectionMonitorThread'
p287
tp288
a(g15
g22
tp289
aa(lp290
(g19
S'edu.uci.ics.crawler4j.fetcher.IdleConnectionMonitorThread'
p291
tp292
a(g27
S'false'
p293
tp294
a(g30
S'shutdown'
p295
tp296
a(g33
S'()V'
p297
tp298
a(g15
g36
tp299
aa(lp300
(g39
S'10'
p301
tp302
a(g42
S'55'
p303
tp304
a(g45
S'edu/uci/ics/crawler4j/fetcher/IdleConnectionMonitorThread.java'
p305
tp306
a(g48
S'IdleConnectionMonitorThread.java'
p307
tp308
a(g19
S'edu.uci.ics.crawler4j.fetcher.IdleConnectionMonitorThread'
p309
tp310
a(g53
S'55'
p311
tp312
a(g56
S'10'
p313
tp314
a(g15
g59
tp315
aaa(lp316
(lp317
(g3
g4
tp318
a(g6
S'MALICIOUS_CODE'
p319
tp320
a(g9
S'EI'
p321
tp322
a(g12
S'EI_EXPOSE_REP'
p323
tp324
a(g15
g16
tp325
aa(lp326
(g19
S'edu.uci.ics.crawler4j.fetcher.PageFetchResult'
p327
tp328
a(g15
g22
tp329
aa(lp330
(g19
S'edu.uci.ics.crawler4j.fetcher.PageFetchResult'
p331
tp332
a(g27
S'false'
p333
tp334
a(g30
S'getResponseHeaders'
p335
tp336
a(g33
S'()[Lorg/apache/http/Header;'
p337
tp338
a(g15
g36
tp339
aa(lp340
(g19
S'edu.uci.ics.crawler4j.fetcher.PageFetchResult'
p341
tp342
a(g27
S'false'
p343
tp344
a(g30
S'responseHeaders'
p345
tp346
a(g33
S'[Lorg/apache/http/Header;'
p347
tp348
a(g15
g94
tp349
aa(lp350
(g39
g97
tp351
a(g42
S'60'
p352
tp353
a(g45
S'edu/uci/ics/crawler4j/fetcher/PageFetchResult.java'
p354
tp355
a(g48
S'PageFetchResult.java'
p356
tp357
a(g19
S'edu.uci.ics.crawler4j.fetcher.PageFetchResult'
p358
tp359
a(g53
S'60'
p360
tp361
a(g56
g97
tp362
a(g15
g59
tp363
aaa(lp364
(lp365
(g3
g4
tp366
a(g6
S'MALICIOUS_CODE'
p367
tp368
a(g9
S'EI2'
p369
tp370
a(g12
S'EI_EXPOSE_REP2'
p371
tp372
a(g15
g16
tp373
aa(lp374
(g19
S'edu.uci.ics.crawler4j.fetcher.PageFetchResult'
p375
tp376
a(g15
g22
tp377
aa(lp378
(g19
S'edu.uci.ics.crawler4j.fetcher.PageFetchResult'
p379
tp380
a(g27
S'false'
p381
tp382
a(g30
S'setResponseHeaders'
p383
tp384
a(g33
S'([Lorg/apache/http/Header;)V'
p385
tp386
a(g15
g36
tp387
aa(lp388
(g19
S'edu.uci.ics.crawler4j.fetcher.PageFetchResult'
p389
tp390
a(g27
S'false'
p391
tp392
a(g30
S'responseHeaders'
p393
tp394
a(g33
S'[Lorg/apache/http/Header;'
p395
tp396
a(g15
g94
tp397
aa(lp398
(g194
g4
tp399
a(g196
g197
tp400
a(g199
S'LOCAL_VARIABLE_NAMED'
p401
tp402
a(g30
S'responseHeaders'
p403
tp404
a(g15
g204
tp405
aa(lp406
(g39
g4
tp407
a(g42
S'64'
p408
tp409
a(g45
S'edu/uci/ics/crawler4j/fetcher/PageFetchResult.java'
p410
tp411
a(g48
S'PageFetchResult.java'
p412
tp413
a(g19
S'edu.uci.ics.crawler4j.fetcher.PageFetchResult'
p414
tp415
a(g53
S'64'
p416
tp417
a(g56
g4
tp418
a(g15
g59
tp419
aaa(lp420
(lp421
(g3
g4
tp422
a(g6
S'MT_CORRECTNESS'
p423
tp424
a(g9
S'SWL'
p425
tp426
a(g12
S'SWL_SLEEP_WITH_LOCK_HELD'
p427
tp428
a(g15
g16
tp429
aa(lp430
(g19
S'edu.uci.ics.crawler4j.fetcher.PageFetcher'
p431
tp432
a(g15
g22
tp433
aa(lp434
(g19
S'edu.uci.ics.crawler4j.fetcher.PageFetcher'
p435
tp436
a(g27
S'false'
p437
tp438
a(g30
S'fetchHeader'
p439
tp440
a(g33
S'(Ledu/uci/ics/crawler4j/url/WebURL;)Ledu/uci/ics/crawler4j/fetcher/PageFetchResult;'
p441
tp442
a(g15
g36
tp443
aa(lp444
(g39
S'81'
p445
tp446
a(g42
S'154'
p447
tp448
a(g45
S'edu/uci/ics/crawler4j/fetcher/PageFetcher.java'
p449
tp450
a(g48
S'PageFetcher.java'
p451
tp452
a(g19
S'edu.uci.ics.crawler4j.fetcher.PageFetcher'
p453
tp454
a(g53
S'154'
p455
tp456
a(g56
S'81'
p457
tp458
a(g15
g59
tp459
aaa(lp460
(lp461
(g3
g197
tp462
a(g6
S'I18N'
p463
tp464
a(g9
S'Dm'
p465
tp466
a(g12
S'DM_DEFAULT_ENCODING'
p467
tp468
a(g15
g16
tp469
aa(lp470
(g19
S'edu.uci.ics.crawler4j.frontier.Counters'
p471
tp472
a(g15
g22
tp473
aa(lp474
(g19
S'edu.uci.ics.crawler4j.frontier.Counters'
p475
tp476
a(g27
S'false'
p477
tp478
a(g30
S'<init>'
p479
tp480
a(g33
S'(Lcom/sleepycat/je/Environment;Ledu/uci/ics/crawler4j/crawler/CrawlConfig;)V'
p481
tp482
a(g15
g36
tp483
aa(lp484
(g19
S'java.lang.String'
p485
tp486
a(g27
S'false'
p487
tp488
a(g199
S'METHOD_CALLED'
p489
tp490
a(g30
S'<init>'
p491
tp492
a(g33
S'([B)V'
p493
tp494
a(g15
g36
tp495
aa(lp496
(g39
S'158'
p497
tp498
a(g42
S'73'
p499
tp500
a(g45
S'edu/uci/ics/crawler4j/frontier/Counters.java'
p501
tp502
a(g48
S'Counters.java'
p503
tp504
a(g19
S'edu.uci.ics.crawler4j.frontier.Counters'
p505
tp506
a(g53
S'73'
p507
tp508
a(g56
S'158'
p509
tp510
a(g15
g59
tp511
aaa(lp512
(lp513
(g3
g197
tp514
a(g6
S'I18N'
p515
tp516
a(g9
S'Dm'
p517
tp518
a(g12
S'DM_DEFAULT_ENCODING'
p519
tp520
a(g15
g16
tp521
aa(lp522
(g19
S'edu.uci.ics.crawler4j.frontier.Counters'
p523
tp524
a(g15
g22
tp525
aa(lp526
(g19
S'edu.uci.ics.crawler4j.frontier.Counters'
p527
tp528
a(g27
S'false'
p529
tp530
a(g30
S'setValue'
p531
tp532
a(g33
S'(Ljava/lang/String;J)V'
p533
tp534
a(g15
g36
tp535
aa(lp536
(g19
S'java.lang.String'
p537
tp538
a(g27
S'false'
p539
tp540
a(g199
S'METHOD_CALLED'
p541
tp542
a(g30
S'getBytes'
p543
tp544
a(g33
S'()[B'
p545
tp546
a(g15
g36
tp547
aa(lp548
(g39
S'56'
p549
tp550
a(g42
S'100'
p551
tp552
a(g45
S'edu/uci/ics/crawler4j/frontier/Counters.java'
p553
tp554
a(g48
S'Counters.java'
p555
tp556
a(g19
S'edu.uci.ics.crawler4j.frontier.Counters'
p557
tp558
a(g53
S'100'
p559
tp560
a(g56
S'56'
p561
tp562
a(g15
g59
tp563
aaa(lp564
(lp565
(g3
g4
tp566
a(g6
S'PERFORMANCE'
p567
tp568
a(g9
S'Bx'
p569
tp570
a(g12
S'DM_NUMBER_CTOR'
p571
tp572
a(g15
g16
tp573
aa(lp574
(g19
S'edu.uci.ics.crawler4j.frontier.Counters'
p575
tp576
a(g15
g22
tp577
aa(lp578
(g19
S'edu.uci.ics.crawler4j.frontier.Counters'
p579
tp580
a(g27
S'false'
p581
tp582
a(g30
S'<init>'
p583
tp584
a(g33
S'(Lcom/sleepycat/je/Environment;Ledu/uci/ics/crawler4j/crawler/CrawlConfig;)V'
p585
tp586
a(g15
g36
tp587
aa(lp588
(g19
S'java.lang.Long'
p589
tp590
a(g27
S'false'
p591
tp592
a(g199
S'METHOD_CALLED'
p593
tp594
a(g30
S'<init>'
p595
tp596
a(g33
S'(J)V'
p597
tp598
a(g15
g36
tp599
aa(lp600
(g19
S'java.lang.Long'
p601
tp602
a(g27
S'true'
p603
tp604
a(g199
S'SHOULD_CALL'
p605
tp606
a(g30
S'valueOf'
p607
tp608
a(g33
S'(J)V'
p609
tp610
a(g15
g36
tp611
aa(lp612
(g39
S'185'
p613
tp614
a(g42
S'75'
p615
tp616
a(g45
S'edu/uci/ics/crawler4j/frontier/Counters.java'
p617
tp618
a(g48
S'Counters.java'
p619
tp620
a(g19
S'edu.uci.ics.crawler4j.frontier.Counters'
p621
tp622
a(g53
S'75'
p623
tp624
a(g56
S'185'
p625
tp626
a(g15
g59
tp627
aaa(lp628
(lp629
(g3
g4
tp630
a(g6
S'PERFORMANCE'
p631
tp632
a(g9
S'Bx'
p633
tp634
a(g12
S'DM_NUMBER_CTOR'
p635
tp636
a(g15
g16
tp637
aa(lp638
(g19
S'edu.uci.ics.crawler4j.frontier.Counters'
p639
tp640
a(g15
g22
tp641
aa(lp642
(g19
S'edu.uci.ics.crawler4j.frontier.Counters'
p643
tp644
a(g27
S'false'
p645
tp646
a(g30
S'setValue'
p647
tp648
a(g33
S'(Ljava/lang/String;J)V'
p649
tp650
a(g15
g36
tp651
aa(lp652
(g19
S'java.lang.Long'
p653
tp654
a(g27
S'false'
p655
tp656
a(g199
S'METHOD_CALLED'
p657
tp658
a(g30
S'<init>'
p659
tp660
a(g33
S'(J)V'
p661
tp662
a(g15
g36
tp663
aa(lp664
(g19
S'java.lang.Long'
p665
tp666
a(g27
S'true'
p667
tp668
a(g199
S'SHOULD_CALL'
p669
tp670
a(g30
S'valueOf'
p671
tp672
a(g33
S'(J)V'
p673
tp674
a(g15
g36
tp675
aa(lp676
(g39
S'18'
p677
tp678
a(g42
S'97'
p679
tp680
a(g45
S'edu/uci/ics/crawler4j/frontier/Counters.java'
p681
tp682
a(g48
S'Counters.java'
p683
tp684
a(g19
S'edu.uci.ics.crawler4j.frontier.Counters'
p685
tp686
a(g53
S'97'
p687
tp688
a(g56
S'18'
p689
tp690
a(g15
g59
tp691
aaa(lp692
(lp693
(g3
g4
tp694
a(g6
S'PERFORMANCE'
p695
tp696
a(g9
S'SIC'
p697
tp698
a(g12
S'SIC_INNER_SHOULD_BE_STATIC'
p699
tp700
a(g15
g16
tp701
aa(lp702
(g19
S'edu.uci.ics.crawler4j.frontier.Counters$ReservedCounterNames'
p703
tp704
a(g15
g22
tp705
aaa(lp706
(lp707
(g3
g197
tp708
a(g6
S'I18N'
p709
tp710
a(g9
S'Dm'
p711
tp712
a(g12
S'DM_DEFAULT_ENCODING'
p713
tp714
a(g15
g16
tp715
aa(lp716
(g19
S'edu.uci.ics.crawler4j.frontier.DocIDServer'
p717
tp718
a(g15
g22
tp719
aa(lp720
(g19
S'edu.uci.ics.crawler4j.frontier.DocIDServer'
p721
tp722
a(g27
S'false'
p723
tp724
a(g30
S'addUrlAndDocId'
p725
tp726
a(g33
S'(Ljava/lang/String;I)V'
p727
tp728
a(g15
g36
tp729
aa(lp730
(g19
S'java.lang.String'
p731
tp732
a(g27
S'false'
p733
tp734
a(g199
S'METHOD_CALLED'
p735
tp736
a(g30
S'getBytes'
p737
tp738
a(g33
S'()[B'
p739
tp740
a(g15
g36
tp741
aa(lp742
(g39
S'122'
p743
tp744
a(g42
S'121'
p745
tp746
a(g45
S'edu/uci/ics/crawler4j/frontier/DocIDServer.java'
p747
tp748
a(g48
S'DocIDServer.java'
p749
tp750
a(g19
S'edu.uci.ics.crawler4j.frontier.DocIDServer'
p751
tp752
a(g53
S'121'
p753
tp754
a(g56
S'122'
p755
tp756
a(g15
g59
tp757
aaa(lp758
(lp759
(g3
g197
tp760
a(g6
S'I18N'
p761
tp762
a(g9
S'Dm'
p763
tp764
a(g12
S'DM_DEFAULT_ENCODING'
p765
tp766
a(g15
g16
tp767
aa(lp768
(g19
S'edu.uci.ics.crawler4j.frontier.DocIDServer'
p769
tp770
a(g15
g22
tp771
aa(lp772
(g19
S'edu.uci.ics.crawler4j.frontier.DocIDServer'
p773
tp774
a(g27
S'false'
p775
tp776
a(g30
S'getDocId'
p777
tp778
a(g33
S'(Ljava/lang/String;)I'
p779
tp780
a(g15
g36
tp781
aa(lp782
(g19
S'java.lang.String'
p783
tp784
a(g27
S'false'
p785
tp786
a(g199
S'METHOD_CALLED'
p787
tp788
a(g30
S'getBytes'
p789
tp790
a(g33
S'()[B'
p791
tp792
a(g15
g36
tp793
aa(lp794
(g39
S'32'
p795
tp796
a(g42
S'74'
p797
tp798
a(g45
S'edu/uci/ics/crawler4j/frontier/DocIDServer.java'
p799
tp800
a(g48
S'DocIDServer.java'
p801
tp802
a(g19
S'edu.uci.ics.crawler4j.frontier.DocIDServer'
p803
tp804
a(g53
S'74'
p805
tp806
a(g56
S'32'
p807
tp808
a(g15
g59
tp809
aaa(lp810
(lp811
(g3
g197
tp812
a(g6
S'I18N'
p813
tp814
a(g9
S'Dm'
p815
tp816
a(g12
S'DM_DEFAULT_ENCODING'
p817
tp818
a(g15
g16
tp819
aa(lp820
(g19
S'edu.uci.ics.crawler4j.frontier.DocIDServer'
p821
tp822
a(g15
g22
tp823
aa(lp824
(g19
S'edu.uci.ics.crawler4j.frontier.DocIDServer'
p825
tp826
a(g27
S'false'
p827
tp828
a(g30
S'getNewDocID'
p829
tp830
a(g33
S'(Ljava/lang/String;)I'
p831
tp832
a(g15
g36
tp833
aa(lp834
(g19
S'java.lang.String'
p835
tp836
a(g27
S'false'
p837
tp838
a(g199
S'METHOD_CALLED'
p839
tp840
a(g30
S'getBytes'
p841
tp842
a(g33
S'()[B'
p843
tp844
a(g15
g36
tp845
aa(lp846
(g39
S'41'
p847
tp848
a(g42
S'97'
p849
tp850
a(g45
S'edu/uci/ics/crawler4j/frontier/DocIDServer.java'
p851
tp852
a(g48
S'DocIDServer.java'
p853
tp854
a(g19
S'edu.uci.ics.crawler4j.frontier.DocIDServer'
p855
tp856
a(g53
S'97'
p857
tp858
a(g56
S'41'
p859
tp860
a(g15
g59
tp861
aaa(lp862
(lp863
(g3
g4
tp864
a(g6
S'MT_CORRECTNESS'
p865
tp866
a(g9
S'UW'
p867
tp868
a(g12
S'UW_UNCOND_WAIT'
p869
tp870
a(g15
g16
tp871
aa(lp872
(g19
S'edu.uci.ics.crawler4j.frontier.Frontier'
p873
tp874
a(g15
g22
tp875
aa(lp876
(g19
S'edu.uci.ics.crawler4j.frontier.Frontier'
p877
tp878
a(g27
S'false'
p879
tp880
a(g30
S'getNextURLs'
p881
tp882
a(g33
S'(ILjava/util/List;)V'
p883
tp884
a(g15
g36
tp885
aa(lp886
(g39
S'174'
p887
tp888
a(g42
S'150'
p889
tp890
a(g45
S'edu/uci/ics/crawler4j/frontier/Frontier.java'
p891
tp892
a(g48
S'Frontier.java'
p893
tp894
a(g19
S'edu.uci.ics.crawler4j.frontier.Frontier'
p895
tp896
a(g53
S'150'
p897
tp898
a(g56
S'174'
p899
tp900
a(g15
g59
tp901
aaa(lp902
(lp903
(g3
g4
tp904
a(g6
S'PERFORMANCE'
p905
tp906
a(g9
S'SS'
p907
tp908
a(g12
S'SS_SHOULD_BE_STATIC'
p909
tp910
a(g15
g16
tp911
aa(lp912
(g19
S'edu.uci.ics.crawler4j.parser.HtmlContentHandler'
p913
tp914
a(g15
g22
tp915
aa(lp916
(g19
S'edu.uci.ics.crawler4j.parser.HtmlContentHandler'
p917
tp918
a(g27
S'false'
p919
tp920
a(g30
S'MAX_ANCHOR_LENGTH'
p921
tp922
a(g33
S'I'
p923
tp924
a(g15
g94
tp925
aa(lp926
(g39
S'7'
p927
tp928
a(g42
S'31'
p929
tp930
a(g45
S'edu/uci/ics/crawler4j/parser/HtmlContentHandler.java'
p931
tp932
a(g48
S'HtmlContentHandler.java'
p933
tp934
a(g19
S'edu.uci.ics.crawler4j.parser.HtmlContentHandler'
p935
tp936
a(g53
S'31'
p937
tp938
a(g56
g927
tp939
a(g15
g59
tp940
aaa(lp941
(lp942
(g3
g197
tp943
a(g6
S'I18N'
p944
tp945
a(g9
S'Dm'
p946
tp947
a(g12
S'DM_DEFAULT_ENCODING'
p948
tp949
a(g15
g16
tp950
aa(lp951
(g19
S'edu.uci.ics.crawler4j.parser.Parser'
p952
tp953
a(g15
g22
tp954
aa(lp955
(g19
S'edu.uci.ics.crawler4j.parser.Parser'
p956
tp957
a(g27
S'false'
p958
tp959
a(g30
S'parse'
p960
tp961
a(g33
S'(Ledu/uci/ics/crawler4j/crawler/Page;Ljava/lang/String;)Z'
p962
tp963
a(g15
g36
tp964
aa(lp965
(g19
S'java.lang.String'
p966
tp967
a(g27
S'false'
p968
tp969
a(g199
S'METHOD_CALLED'
p970
tp971
a(g30
S'<init>'
p972
tp973
a(g33
S'([B)V'
p974
tp975
a(g15
g36
tp976
aa(lp977
(g39
S'665'
p978
tp979
a(g42
S'143'
p980
tp981
a(g45
S'edu/uci/ics/crawler4j/parser/Parser.java'
p982
tp983
a(g48
S'Parser.java'
p984
tp985
a(g19
S'edu.uci.ics.crawler4j.parser.Parser'
p986
tp987
a(g53
S'143'
p988
tp989
a(g56
S'665'
p990
tp991
a(g15
g59
tp992
aaa(lp993
(lp994
(g3
g197
tp995
a(g6
S'I18N'
p996
tp997
a(g9
S'Dm'
p998
tp999
a(g12
S'DM_DEFAULT_ENCODING'
p1000
tp1001
a(g15
g16
tp1002
aa(lp1003
(g19
S'edu.uci.ics.crawler4j.robotstxt.RobotstxtServer'
p1004
tp1005
a(g15
g22
tp1006
aa(lp1007
(g19
S'edu.uci.ics.crawler4j.robotstxt.RobotstxtServer'
p1008
tp1009
a(g27
S'false'
p1010
tp1011
a(g30
S'fetchDirectives'
p1012
tp1013
a(g33
S'(Ljava/net/URL;)Ledu/uci/ics/crawler4j/robotstxt/HostDirectives;'
p1014
tp1015
a(g15
g36
tp1016
aa(lp1017
(g19
S'java.lang.String'
p1018
tp1019
a(g27
S'false'
p1020
tp1021
a(g199
S'METHOD_CALLED'
p1022
tp1023
a(g30
S'<init>'
p1024
tp1025
a(g33
S'([B)V'
p1026
tp1027
a(g15
g36
tp1028
aa(lp1029
(g39
S'167'
p1030
tp1031
a(g42
S'98'
p1032
tp1033
a(g45
S'edu/uci/ics/crawler4j/robotstxt/RobotstxtServer.java'
p1034
tp1035
a(g48
S'RobotstxtServer.java'
p1036
tp1037
a(g19
S'edu.uci.ics.crawler4j.robotstxt.RobotstxtServer'
p1038
tp1039
a(g53
S'98'
p1040
tp1041
a(g56
S'167'
p1042
tp1043
a(g15
g59
tp1044
aaa(lp1045
(lp1046
(g3
g197
tp1047
a(g6
S'I18N'
p1048
tp1049
a(g9
S'Dm'
p1050
tp1051
a(g12
S'DM_DEFAULT_ENCODING'
p1052
tp1053
a(g15
g16
tp1054
aa(lp1055
(g19
S'edu.uci.ics.crawler4j.url.TLDList'
p1056
tp1057
a(g15
g22
tp1058
aa(lp1059
(g19
S'edu.uci.ics.crawler4j.url.TLDList'
p1060
tp1061
a(g27
S'false'
p1062
tp1063
a(g30
S'<init>'
p1064
tp1065
a(g33
S'()V'
p1066
tp1067
a(g15
g36
tp1068
aa(lp1069
(g19
S'java.io.InputStreamReader'
p1070
tp1071
a(g27
S'false'
p1072
tp1073
a(g199
S'METHOD_CALLED'
p1074
tp1075
a(g30
S'<init>'
p1076
tp1077
a(g33
S'(Ljava/io/InputStream;)V'
p1078
tp1079
a(g15
g36
tp1080
aa(lp1081
(g39
S'59'
p1082
tp1083
a(g42
S'25'
p1084
tp1085
a(g45
S'edu/uci/ics/crawler4j/url/TLDList.java'
p1086
tp1087
a(g48
S'TLDList.java'
p1088
tp1089
a(g19
S'edu.uci.ics.crawler4j.url.TLDList'
p1090
tp1091
a(g53
S'25'
p1092
tp1093
a(g56
S'59'
p1094
tp1095
a(g15
g59
tp1096
aaa(lp1097
(lp1098
(g3
g4
tp1099
a(g6
S'BAD_PRACTICE'
p1100
tp1101
a(g9
S'Dm'
p1102
tp1103
a(g12
S'DM_EXIT'
p1104
tp1105
a(g15
g16
tp1106
aa(lp1107
(g19
S'edu.uci.ics.crawler4j.url.TLDList'
p1108
tp1109
a(g15
g22
tp1110
aa(lp1111
(g19
S'edu.uci.ics.crawler4j.url.TLDList'
p1112
tp1113
a(g27
S'false'
p1114
tp1115
a(g30
S'<init>'
p1116
tp1117
a(g33
S'()V'
p1118
tp1119
a(g15
g36
tp1120
aa(lp1121
(g39
S'47'
p1122
tp1123
a(g42
S'22'
p1124
tp1125
a(g45
S'edu/uci/ics/crawler4j/url/TLDList.java'
p1126
tp1127
a(g48
S'TLDList.java'
p1128
tp1129
a(g19
S'edu.uci.ics.crawler4j.url.TLDList'
p1130
tp1131
a(g53
S'22'
p1132
tp1133
a(g56
S'47'
p1134
tp1135
a(g15
g59
tp1136
aaa(lp1137
(lp1138
(g3
g4
tp1139
a(g6
S'PERFORMANCE'
p1140
tp1141
a(g9
S'SS'
p1142
tp1143
a(g12
S'SS_SHOULD_BE_STATIC'
p1144
tp1145
a(g15
g16
tp1146
aa(lp1147
(g19
S'edu.uci.ics.crawler4j.url.TLDList'
p1148
tp1149
a(g15
g22
tp1150
aa(lp1151
(g19
S'edu.uci.ics.crawler4j.url.TLDList'
p1152
tp1153
a(g27
S'false'
p1154
tp1155
a(g30
S'tldNamesFileName'
p1156
tp1157
a(g33
S'Ljava/lang/String;'
p1158
tp1159
a(g15
g94
tp1160
aa(lp1161
(g39
g927
tp1162
a(g42
S'11'
p1163
tp1164
a(g45
S'edu/uci/ics/crawler4j/url/TLDList.java'
p1165
tp1166
a(g48
S'TLDList.java'
p1167
tp1168
a(g19
S'edu.uci.ics.crawler4j.url.TLDList'
p1169
tp1170
a(g53
S'11'
p1171
tp1172
a(g56
g927
tp1173
a(g15
g59
tp1174
aaa(lp1175
(lp1176
(g3
g197
tp1177
a(g6
S'BAD_PRACTICE'
p1178
tp1179
a(g9
S'ES'
p1180
tp1181
a(g12
S'ES_COMPARING_STRINGS_WITH_EQ'
p1182
tp1183
a(g15
g16
tp1184
aa(lp1185
(g19
S'edu.uci.ics.crawler4j.url.URLCanonicalizer'
p1186
tp1187
a(g15
g22
tp1188
aa(lp1189
(g19
S'edu.uci.ics.crawler4j.url.URLCanonicalizer'
p1190
tp1191
a(g27
S'true'
p1192
tp1193
a(g30
S'getCanonicalURL'
p1194
tp1195
a(g33
S'(Ljava/lang/String;Ljava/lang/String;)Ljava/lang/String;'
p1196
tp1197
a(g15
g36
tp1198
aa(lp1199
(S'descriptor'
p1200
S'Ljava/lang/String;'
p1201
tp1202
a(g199
S'TYPE_FOUND'
p1203
tp1204
a(g15
S'Type'
p1205
tp1206
aa(lp1207
(g199
S'STRING_CONSTANT'
p1208
tp1209
a(S'value'
p1210
S''
p1211
tp1212
a(g15
S'String'
p1213
tp1214
aa(lp1215
(g194
S'31'
p1216
tp1217
a(g196
S'3'
p1218
tp1219
a(g199
S'LOCAL_VARIABLE_VALUE_OF'
p1220
tp1221
a(g30
S'host'
p1222
tp1223
a(g15
g204
tp1224
aa(lp1225
(g39
S'33'
p1226
tp1227
a(g42
S'49'
p1228
tp1229
a(g45
S'edu/uci/ics/crawler4j/url/URLCanonicalizer.java'
p1230
tp1231
a(g48
S'URLCanonicalizer.java'
p1232
tp1233
a(g19
S'edu.uci.ics.crawler4j.url.URLCanonicalizer'
p1234
tp1235
a(g53
S'49'
p1236
tp1237
a(g56
S'33'
p1238
tp1239
a(g15
g59
tp1240
aa(lp1241
(g30
S'edu.umd.cs.findbugs.detect.RefComparisonWarningProperty.DYNAMIC_AND_UNKNOWN'
p1242
tp1243
a(g1210
S'true'
p1244
tp1245
a(g15
S'Property'
p1246
tp1247
aaa(lp1248
(lp1249
(g3
g4
tp1250
a(g6
S'STYLE'
p1251
tp1252
a(g9
S'SF'
p1253
tp1254
a(g12
S'SF_SWITCH_NO_DEFAULT'
p1255
tp1256
a(g15
g16
tp1257
aa(lp1258
(g19
S'edu.uci.ics.crawler4j.url.URLCanonicalizer'
p1259
tp1260
a(g15
g22
tp1261
aa(lp1262
(g19
S'edu.uci.ics.crawler4j.url.URLCanonicalizer'
p1263
tp1264
a(g27
S'true'
p1265
tp1266
a(g30
S'createParameterMap'
p1267
tp1268
a(g33
S'(Ljava/lang/String;)Ljava/util/SortedMap;'
p1269
tp1270
a(g15
g36
tp1271
aa(lp1272
(g39
S'161'
p1273
tp1274
a(g42
S'151'
p1275
tp1276
a(g45
S'edu/uci/ics/crawler4j/url/URLCanonicalizer.java'
p1277
tp1278
a(g48
S'URLCanonicalizer.java'
p1279
tp1280
a(g19
S'edu.uci.ics.crawler4j.url.URLCanonicalizer'
p1281
tp1282
a(g53
S'142'
p1283
tp1284
a(g56
S'76'
p1285
tp1286
a(g15
g59
tp1287
aaa.