(lp0
(lp1
(lp2
(S'priority'
p3
S'2'
p4
tp5
a(S'category'
p6
S'STYLE'
p7
tp8
a(S'abbrev'
p9
S'REC'
p10
tp11
a(S'type'
p12
S'REC_CATCH_EXCEPTION'
p13
tp14
aa(lp15
(S'classname'
p16
S'edu.uci.ics.crawler4j.crawler.CrawlController$1'
p17
tp18
aa(lp19
(g16
S'edu.uci.ics.crawler4j.crawler.CrawlController$1'
p20
tp21
a(S'isStatic'
p22
S'false'
p23
tp24
a(S'name'
p25
S'run'
p26
tp27
a(S'signature'
p28
S'()V'
p29
tp30
aa(lp31
(S'endBytecode'
p32
S'538'
p33
tp34
a(S'end'
p35
S'244'
p36
tp37
a(S'sourcepath'
p38
S'edu/uci/ics/crawler4j/crawler/CrawlController.java'
p39
tp40
a(S'sourcefile'
p41
S'CrawlController.java'
p42
tp43
a(g16
S'edu.uci.ics.crawler4j.crawler.CrawlController$1'
p44
tp45
a(S'start'
p46
S'244'
p47
tp48
a(S'startBytecode'
p49
S'538'
p50
tp51
aaa(lp52
(lp53
(g3
g4
tp54
a(g6
S'MALICIOUS_CODE'
p55
tp56
a(g9
S'EI'
p57
tp58
a(g12
S'EI_EXPOSE_REP'
p59
tp60
aa(lp61
(g16
S'edu.uci.ics.crawler4j.crawler.Page'
p62
tp63
aa(lp64
(g16
S'edu.uci.ics.crawler4j.crawler.Page'
p65
tp66
a(g22
S'false'
p67
tp68
a(g25
S'getContentData'
p69
tp70
a(g28
S'()[B'
p71
tp72
aa(lp73
(g16
S'edu.uci.ics.crawler4j.crawler.Page'
p74
tp75
a(g22
S'false'
p76
tp77
a(g25
S'contentData'
p78
tp79
a(g28
S'[B'
p80
tp81
aa(lp82
(g32
S'4'
p83
tp84
a(g35
S'141'
p85
tp86
a(g38
S'edu/uci/ics/crawler4j/crawler/Page.java'
p87
tp88
a(g41
S'Page.java'
p89
tp90
a(g16
S'edu.uci.ics.crawler4j.crawler.Page'
p91
tp92
a(g46
S'141'
p93
tp94
a(g49
g83
tp95
aaa(lp96
(lp97
(g3
g4
tp98
a(g6
S'MALICIOUS_CODE'
p99
tp100
a(g9
S'EI'
p101
tp102
a(g12
S'EI_EXPOSE_REP'
p103
tp104
aa(lp105
(g16
S'edu.uci.ics.crawler4j.crawler.Page'
p106
tp107
aa(lp108
(g16
S'edu.uci.ics.crawler4j.crawler.Page'
p109
tp110
a(g22
S'false'
p111
tp112
a(g25
S'getFetchResponseHeaders'
p113
tp114
a(g28
S'()[Lorg/apache/http/Header;'
p115
tp116
aa(lp117
(g16
S'edu.uci.ics.crawler4j.crawler.Page'
p118
tp119
a(g22
S'false'
p120
tp121
a(g25
S'fetchResponseHeaders'
p122
tp123
a(g28
S'[Lorg/apache/http/Header;'
p124
tp125
aa(lp126
(g32
g83
tp127
a(g35
S'119'
p128
tp129
a(g38
S'edu/uci/ics/crawler4j/crawler/Page.java'
p130
tp131
a(g41
S'Page.java'
p132
tp133
a(g16
S'edu.uci.ics.crawler4j.crawler.Page'
p134
tp135
a(g46
S'119'
p136
tp137
a(g49
g83
tp138
aaa(lp139
(lp140
(g3
g4
tp141
a(g6
S'MALICIOUS_CODE'
p142
tp143
a(g9
S'EI2'
p144
tp145
a(g12
S'EI_EXPOSE_REP2'
p146
tp147
aa(lp148
(g16
S'edu.uci.ics.crawler4j.crawler.Page'
p149
tp150
aa(lp151
(g16
S'edu.uci.ics.crawler4j.crawler.Page'
p152
tp153
a(g22
S'false'
p154
tp155
a(g25
S'setContentData'
p156
tp157
a(g28
S'([B)V'
p158
tp159
aa(lp160
(g16
S'edu.uci.ics.crawler4j.crawler.Page'
p161
tp162
a(g22
S'false'
p163
tp164
a(g25
S'contentData'
p165
tp166
a(g28
S'[B'
p167
tp168
aa(lp169
(S'pc'
p170
g4
tp171
a(S'register'
p172
S'1'
p173
tp174
a(S'role'
p175
S'LOCAL_VARIABLE_NAMED'
p176
tp177
a(g25
S'contentData'
p178
tp179
aa(lp180
(g32
g4
tp181
a(g35
S'145'
p182
tp183
a(g38
S'edu/uci/ics/crawler4j/crawler/Page.java'
p184
tp185
a(g41
S'Page.java'
p186
tp187
a(g16
S'edu.uci.ics.crawler4j.crawler.Page'
p188
tp189
a(g46
S'145'
p190
tp191
a(g49
g4
tp192
aaa(lp193
(lp194
(g3
g4
tp195
a(g6
S'MALICIOUS_CODE'
p196
tp197
a(g9
S'EI2'
p198
tp199
a(g12
S'EI_EXPOSE_REP2'
p200
tp201
aa(lp202
(g16
S'edu.uci.ics.crawler4j.crawler.Page'
p203
tp204
aa(lp205
(g16
S'edu.uci.ics.crawler4j.crawler.Page'
p206
tp207
a(g22
S'false'
p208
tp209
a(g25
S'setFetchResponseHeaders'
p210
tp211
a(g28
S'([Lorg/apache/http/Header;)V'
p212
tp213
aa(lp214
(g16
S'edu.uci.ics.crawler4j.crawler.Page'
p215
tp216
a(g22
S'false'
p217
tp218
a(g25
S'fetchResponseHeaders'
p219
tp220
a(g28
S'[Lorg/apache/http/Header;'
p221
tp222
aa(lp223
(g170
g4
tp224
a(g172
g173
tp225
a(g175
S'LOCAL_VARIABLE_NAMED'
p226
tp227
a(g25
S'headers'
p228
tp229
aa(lp230
(g32
g4
tp231
a(g35
S'123'
p232
tp233
a(g38
S'edu/uci/ics/crawler4j/crawler/Page.java'
p234
tp235
a(g41
S'Page.java'
p236
tp237
a(g16
S'edu.uci.ics.crawler4j.crawler.Page'
p238
tp239
a(g46
S'123'
p240
tp241
a(g49
g4
tp242
aaa(lp243
(lp244
(g3
g4
tp245
a(g6
S'MT_CORRECTNESS'
p246
tp247
a(g9
S'NN'
p248
tp249
a(g12
S'NN_NAKED_NOTIFY'
p250
tp251
aa(lp252
(g16
S'edu.uci.ics.crawler4j.fetcher.IdleConnectionMonitorThread'
p253
tp254
aa(lp255
(g16
S'edu.uci.ics.crawler4j.fetcher.IdleConnectionMonitorThread'
p256
tp257
a(g22
S'false'
p258
tp259
a(g25
S'shutdown'
p260
tp261
a(g28
S'()V'
p262
tp263
aa(lp264
(g32
S'10'
p265
tp266
a(g35
S'55'
p267
tp268
a(g38
S'edu/uci/ics/crawler4j/fetcher/IdleConnectionMonitorThread.java'
p269
tp270
a(g41
S'IdleConnectionMonitorThread.java'
p271
tp272
a(g16
S'edu.uci.ics.crawler4j.fetcher.IdleConnectionMonitorThread'
p273
tp274
a(g46
S'55'
p275
tp276
a(g49
S'10'
p277
tp278
aaa(lp279
(lp280
(g3
g4
tp281
a(g6
S'MALICIOUS_CODE'
p282
tp283
a(g9
S'EI'
p284
tp285
a(g12
S'EI_EXPOSE_REP'
p286
tp287
aa(lp288
(g16
S'edu.uci.ics.crawler4j.fetcher.PageFetchResult'
p289
tp290
aa(lp291
(g16
S'edu.uci.ics.crawler4j.fetcher.PageFetchResult'
p292
tp293
a(g22
S'false'
p294
tp295
a(g25
S'getResponseHeaders'
p296
tp297
a(g28
S'()[Lorg/apache/http/Header;'
p298
tp299
aa(lp300
(g16
S'edu.uci.ics.crawler4j.fetcher.PageFetchResult'
p301
tp302
a(g22
S'false'
p303
tp304
a(g25
S'responseHeaders'
p305
tp306
a(g28
S'[Lorg/apache/http/Header;'
p307
tp308
aa(lp309
(g32
g83
tp310
a(g35
S'60'
p311
tp312
a(g38
S'edu/uci/ics/crawler4j/fetcher/PageFetchResult.java'
p313
tp314
a(g41
S'PageFetchResult.java'
p315
tp316
a(g16
S'edu.uci.ics.crawler4j.fetcher.PageFetchResult'
p317
tp318
a(g46
S'60'
p319
tp320
a(g49
g83
tp321
aaa(lp322
(lp323
(g3
g4
tp324
a(g6
S'MALICIOUS_CODE'
p325
tp326
a(g9
S'EI2'
p327
tp328
a(g12
S'EI_EXPOSE_REP2'
p329
tp330
aa(lp331
(g16
S'edu.uci.ics.crawler4j.fetcher.PageFetchResult'
p332
tp333
aa(lp334
(g16
S'edu.uci.ics.crawler4j.fetcher.PageFetchResult'
p335
tp336
a(g22
S'false'
p337
tp338
a(g25
S'setResponseHeaders'
p339
tp340
a(g28
S'([Lorg/apache/http/Header;)V'
p341
tp342
aa(lp343
(g16
S'edu.uci.ics.crawler4j.fetcher.PageFetchResult'
p344
tp345
a(g22
S'false'
p346
tp347
a(g25
S'responseHeaders'
p348
tp349
a(g28
S'[Lorg/apache/http/Header;'
p350
tp351
aa(lp352
(g170
g4
tp353
a(g172
g173
tp354
a(g175
S'LOCAL_VARIABLE_NAMED'
p355
tp356
a(g25
S'responseHeaders'
p357
tp358
aa(lp359
(g32
g4
tp360
a(g35
S'64'
p361
tp362
a(g38
S'edu/uci/ics/crawler4j/fetcher/PageFetchResult.java'
p363
tp364
a(g41
S'PageFetchResult.java'
p365
tp366
a(g16
S'edu.uci.ics.crawler4j.fetcher.PageFetchResult'
p367
tp368
a(g46
S'64'
p369
tp370
a(g49
g4
tp371
aaa(lp372
(lp373
(g3
g4
tp374
a(g6
S'MT_CORRECTNESS'
p375
tp376
a(g9
S'SWL'
p377
tp378
a(g12
S'SWL_SLEEP_WITH_LOCK_HELD'
p379
tp380
aa(lp381
(g16
S'edu.uci.ics.crawler4j.fetcher.PageFetcher'
p382
tp383
aa(lp384
(g16
S'edu.uci.ics.crawler4j.fetcher.PageFetcher'
p385
tp386
a(g22
S'false'
p387
tp388
a(g25
S'fetchHeader'
p389
tp390
a(g28
S'(Ledu/uci/ics/crawler4j/url/WebURL;)Ledu/uci/ics/crawler4j/fetcher/PageFetchResult;'
p391
tp392
aa(lp393
(g32
S'81'
p394
tp395
a(g35
S'154'
p396
tp397
a(g38
S'edu/uci/ics/crawler4j/fetcher/PageFetcher.java'
p398
tp399
a(g41
S'PageFetcher.java'
p400
tp401
a(g16
S'edu.uci.ics.crawler4j.fetcher.PageFetcher'
p402
tp403
a(g46
S'154'
p404
tp405
a(g49
S'81'
p406
tp407
aaa(lp408
(lp409
(g3
g173
tp410
a(g6
S'I18N'
p411
tp412
a(g9
S'Dm'
p413
tp414
a(g12
S'DM_DEFAULT_ENCODING'
p415
tp416
aa(lp417
(g16
S'edu.uci.ics.crawler4j.frontier.Counters'
p418
tp419
aa(lp420
(g16
S'edu.uci.ics.crawler4j.frontier.Counters'
p421
tp422
a(g22
S'false'
p423
tp424
a(g25
S'<init>'
p425
tp426
a(g28
S'(Lcom/sleepycat/je/Environment;Ledu/uci/ics/crawler4j/crawler/CrawlConfig;)V'
p427
tp428
aa(lp429
(g16
S'java.lang.String'
p430
tp431
a(g22
S'false'
p432
tp433
a(g175
S'METHOD_CALLED'
p434
tp435
a(g25
S'<init>'
p436
tp437
a(g28
S'([B)V'
p438
tp439
aa(lp440
(g32
S'158'
p441
tp442
a(g35
S'73'
p443
tp444
a(g38
S'edu/uci/ics/crawler4j/frontier/Counters.java'
p445
tp446
a(g41
S'Counters.java'
p447
tp448
a(g16
S'edu.uci.ics.crawler4j.frontier.Counters'
p449
tp450
a(g46
S'73'
p451
tp452
a(g49
S'158'
p453
tp454
aaa(lp455
(lp456
(g3
g173
tp457
a(g6
S'I18N'
p458
tp459
a(g9
S'Dm'
p460
tp461
a(g12
S'DM_DEFAULT_ENCODING'
p462
tp463
aa(lp464
(g16
S'edu.uci.ics.crawler4j.frontier.Counters'
p465
tp466
aa(lp467
(g16
S'edu.uci.ics.crawler4j.frontier.Counters'
p468
tp469
a(g22
S'false'
p470
tp471
a(g25
S'setValue'
p472
tp473
a(g28
S'(Ljava/lang/String;J)V'
p474
tp475
aa(lp476
(g16
S'java.lang.String'
p477
tp478
a(g22
S'false'
p479
tp480
a(g175
S'METHOD_CALLED'
p481
tp482
a(g25
S'getBytes'
p483
tp484
a(g28
S'()[B'
p485
tp486
aa(lp487
(g32
S'56'
p488
tp489
a(g35
S'100'
p490
tp491
a(g38
S'edu/uci/ics/crawler4j/frontier/Counters.java'
p492
tp493
a(g41
S'Counters.java'
p494
tp495
a(g16
S'edu.uci.ics.crawler4j.frontier.Counters'
p496
tp497
a(g46
S'100'
p498
tp499
a(g49
S'56'
p500
tp501
aaa(lp502
(lp503
(g3
g4
tp504
a(g6
S'PERFORMANCE'
p505
tp506
a(g9
S'Bx'
p507
tp508
a(g12
S'DM_NUMBER_CTOR'
p509
tp510
aa(lp511
(g16
S'edu.uci.ics.crawler4j.frontier.Counters'
p512
tp513
aa(lp514
(g16
S'edu.uci.ics.crawler4j.frontier.Counters'
p515
tp516
a(g22
S'false'
p517
tp518
a(g25
S'<init>'
p519
tp520
a(g28
S'(Lcom/sleepycat/je/Environment;Ledu/uci/ics/crawler4j/crawler/CrawlConfig;)V'
p521
tp522
aa(lp523
(g16
S'java.lang.Long'
p524
tp525
a(g22
S'false'
p526
tp527
a(g175
S'METHOD_CALLED'
p528
tp529
a(g25
S'<init>'
p530
tp531
a(g28
S'(J)V'
p532
tp533
aa(lp534
(g16
S'java.lang.Long'
p535
tp536
a(g22
S'true'
p537
tp538
a(g175
S'SHOULD_CALL'
p539
tp540
a(g25
S'valueOf'
p541
tp542
a(g28
S'(J)V'
p543
tp544
aa(lp545
(g32
S'185'
p546
tp547
a(g35
S'75'
p548
tp549
a(g38
S'edu/uci/ics/crawler4j/frontier/Counters.java'
p550
tp551
a(g41
S'Counters.java'
p552
tp553
a(g16
S'edu.uci.ics.crawler4j.frontier.Counters'
p554
tp555
a(g46
S'75'
p556
tp557
a(g49
S'185'
p558
tp559
aaa(lp560
(lp561
(g3
g4
tp562
a(g6
S'PERFORMANCE'
p563
tp564
a(g9
S'Bx'
p565
tp566
a(g12
S'DM_NUMBER_CTOR'
p567
tp568
aa(lp569
(g16
S'edu.uci.ics.crawler4j.frontier.Counters'
p570
tp571
aa(lp572
(g16
S'edu.uci.ics.crawler4j.frontier.Counters'
p573
tp574
a(g22
S'false'
p575
tp576
a(g25
S'setValue'
p577
tp578
a(g28
S'(Ljava/lang/String;J)V'
p579
tp580
aa(lp581
(g16
S'java.lang.Long'
p582
tp583
a(g22
S'false'
p584
tp585
a(g175
S'METHOD_CALLED'
p586
tp587
a(g25
S'<init>'
p588
tp589
a(g28
S'(J)V'
p590
tp591
aa(lp592
(g16
S'java.lang.Long'
p593
tp594
a(g22
S'true'
p595
tp596
a(g175
S'SHOULD_CALL'
p597
tp598
a(g25
S'valueOf'
p599
tp600
a(g28
S'(J)V'
p601
tp602
aa(lp603
(g32
S'18'
p604
tp605
a(g35
S'97'
p606
tp607
a(g38
S'edu/uci/ics/crawler4j/frontier/Counters.java'
p608
tp609
a(g41
S'Counters.java'
p610
tp611
a(g16
S'edu.uci.ics.crawler4j.frontier.Counters'
p612
tp613
a(g46
S'97'
p614
tp615
a(g49
S'18'
p616
tp617
aaa(lp618
(lp619
(g3
g4
tp620
a(g6
S'PERFORMANCE'
p621
tp622
a(g9
S'SIC'
p623
tp624
a(g12
S'SIC_INNER_SHOULD_BE_STATIC'
p625
tp626
aa(lp627
(g16
S'edu.uci.ics.crawler4j.frontier.Counters$ReservedCounterNames'
p628
tp629
aaa(lp630
(lp631
(g3
g173
tp632
a(g6
S'I18N'
p633
tp634
a(g9
S'Dm'
p635
tp636
a(g12
S'DM_DEFAULT_ENCODING'
p637
tp638
aa(lp639
(g16
S'edu.uci.ics.crawler4j.frontier.DocIDServer'
p640
tp641
aa(lp642
(g16
S'edu.uci.ics.crawler4j.frontier.DocIDServer'
p643
tp644
a(g22
S'false'
p645
tp646
a(g25
S'addUrlAndDocId'
p647
tp648
a(g28
S'(Ljava/lang/String;I)V'
p649
tp650
aa(lp651
(g16
S'java.lang.String'
p652
tp653
a(g22
S'false'
p654
tp655
a(g175
S'METHOD_CALLED'
p656
tp657
a(g25
S'getBytes'
p658
tp659
a(g28
S'()[B'
p660
tp661
aa(lp662
(g32
S'122'
p663
tp664
a(g35
S'121'
p665
tp666
a(g38
S'edu/uci/ics/crawler4j/frontier/DocIDServer.java'
p667
tp668
a(g41
S'DocIDServer.java'
p669
tp670
a(g16
S'edu.uci.ics.crawler4j.frontier.DocIDServer'
p671
tp672
a(g46
S'121'
p673
tp674
a(g49
S'122'
p675
tp676
aaa(lp677
(lp678
(g3
g173
tp679
a(g6
S'I18N'
p680
tp681
a(g9
S'Dm'
p682
tp683
a(g12
S'DM_DEFAULT_ENCODING'
p684
tp685
aa(lp686
(g16
S'edu.uci.ics.crawler4j.frontier.DocIDServer'
p687
tp688
aa(lp689
(g16
S'edu.uci.ics.crawler4j.frontier.DocIDServer'
p690
tp691
a(g22
S'false'
p692
tp693
a(g25
S'getDocId'
p694
tp695
a(g28
S'(Ljava/lang/String;)I'
p696
tp697
aa(lp698
(g16
S'java.lang.String'
p699
tp700
a(g22
S'false'
p701
tp702
a(g175
S'METHOD_CALLED'
p703
tp704
a(g25
S'getBytes'
p705
tp706
a(g28
S'()[B'
p707
tp708
aa(lp709
(g32
S'32'
p710
tp711
a(g35
S'74'
p712
tp713
a(g38
S'edu/uci/ics/crawler4j/frontier/DocIDServer.java'
p714
tp715
a(g41
S'DocIDServer.java'
p716
tp717
a(g16
S'edu.uci.ics.crawler4j.frontier.DocIDServer'
p718
tp719
a(g46
S'74'
p720
tp721
a(g49
S'32'
p722
tp723
aaa(lp724
(lp725
(g3
g173
tp726
a(g6
S'I18N'
p727
tp728
a(g9
S'Dm'
p729
tp730
a(g12
S'DM_DEFAULT_ENCODING'
p731
tp732
aa(lp733
(g16
S'edu.uci.ics.crawler4j.frontier.DocIDServer'
p734
tp735
aa(lp736
(g16
S'edu.uci.ics.crawler4j.frontier.DocIDServer'
p737
tp738
a(g22
S'false'
p739
tp740
a(g25
S'getNewDocID'
p741
tp742
a(g28
S'(Ljava/lang/String;)I'
p743
tp744
aa(lp745
(g16
S'java.lang.String'
p746
tp747
a(g22
S'false'
p748
tp749
a(g175
S'METHOD_CALLED'
p750
tp751
a(g25
S'getBytes'
p752
tp753
a(g28
S'()[B'
p754
tp755
aa(lp756
(g32
S'41'
p757
tp758
a(g35
S'97'
p759
tp760
a(g38
S'edu/uci/ics/crawler4j/frontier/DocIDServer.java'
p761
tp762
a(g41
S'DocIDServer.java'
p763
tp764
a(g16
S'edu.uci.ics.crawler4j.frontier.DocIDServer'
p765
tp766
a(g46
S'97'
p767
tp768
a(g49
S'41'
p769
tp770
aaa(lp771
(lp772
(g3
g4
tp773
a(g6
S'MT_CORRECTNESS'
p774
tp775
a(g9
S'UW'
p776
tp777
a(g12
S'UW_UNCOND_WAIT'
p778
tp779
aa(lp780
(g16
S'edu.uci.ics.crawler4j.frontier.Frontier'
p781
tp782
aa(lp783
(g16
S'edu.uci.ics.crawler4j.frontier.Frontier'
p784
tp785
a(g22
S'false'
p786
tp787
a(g25
S'getNextURLs'
p788
tp789
a(g28
S'(ILjava/util/List;)V'
p790
tp791
aa(lp792
(g32
S'174'
p793
tp794
a(g35
S'150'
p795
tp796
a(g38
S'edu/uci/ics/crawler4j/frontier/Frontier.java'
p797
tp798
a(g41
S'Frontier.java'
p799
tp800
a(g16
S'edu.uci.ics.crawler4j.frontier.Frontier'
p801
tp802
a(g46
S'150'
p803
tp804
a(g49
S'174'
p805
tp806
aaa(lp807
(lp808
(g3
g4
tp809
a(g6
S'PERFORMANCE'
p810
tp811
a(g9
S'SS'
p812
tp813
a(g12
S'SS_SHOULD_BE_STATIC'
p814
tp815
aa(lp816
(g16
S'edu.uci.ics.crawler4j.parser.HtmlContentHandler'
p817
tp818
aa(lp819
(g16
S'edu.uci.ics.crawler4j.parser.HtmlContentHandler'
p820
tp821
a(g22
S'false'
p822
tp823
a(g25
S'MAX_ANCHOR_LENGTH'
p824
tp825
a(g28
S'I'
p826
tp827
aa(lp828
(g32
S'7'
p829
tp830
a(g35
S'31'
p831
tp832
a(g38
S'edu/uci/ics/crawler4j/parser/HtmlContentHandler.java'
p833
tp834
a(g41
S'HtmlContentHandler.java'
p835
tp836
a(g16
S'edu.uci.ics.crawler4j.parser.HtmlContentHandler'
p837
tp838
a(g46
S'31'
p839
tp840
a(g49
g829
tp841
aaa(lp842
(lp843
(g3
g173
tp844
a(g6
S'I18N'
p845
tp846
a(g9
S'Dm'
p847
tp848
a(g12
S'DM_DEFAULT_ENCODING'
p849
tp850
aa(lp851
(g16
S'edu.uci.ics.crawler4j.parser.Parser'
p852
tp853
aa(lp854
(g16
S'edu.uci.ics.crawler4j.parser.Parser'
p855
tp856
a(g22
S'false'
p857
tp858
a(g25
S'parse'
p859
tp860
a(g28
S'(Ledu/uci/ics/crawler4j/crawler/Page;Ljava/lang/String;)Z'
p861
tp862
aa(lp863
(g16
S'java.lang.String'
p864
tp865
a(g22
S'false'
p866
tp867
a(g175
S'METHOD_CALLED'
p868
tp869
a(g25
S'<init>'
p870
tp871
a(g28
S'([B)V'
p872
tp873
aa(lp874
(g32
S'665'
p875
tp876
a(g35
S'143'
p877
tp878
a(g38
S'edu/uci/ics/crawler4j/parser/Parser.java'
p879
tp880
a(g41
S'Parser.java'
p881
tp882
a(g16
S'edu.uci.ics.crawler4j.parser.Parser'
p883
tp884
a(g46
S'143'
p885
tp886
a(g49
S'665'
p887
tp888
aaa(lp889
(lp890
(g3
g173
tp891
a(g6
S'I18N'
p892
tp893
a(g9
S'Dm'
p894
tp895
a(g12
S'DM_DEFAULT_ENCODING'
p896
tp897
aa(lp898
(g16
S'edu.uci.ics.crawler4j.robotstxt.RobotstxtServer'
p899
tp900
aa(lp901
(g16
S'edu.uci.ics.crawler4j.robotstxt.RobotstxtServer'
p902
tp903
a(g22
S'false'
p904
tp905
a(g25
S'fetchDirectives'
p906
tp907
a(g28
S'(Ljava/net/URL;)Ledu/uci/ics/crawler4j/robotstxt/HostDirectives;'
p908
tp909
aa(lp910
(g16
S'java.lang.String'
p911
tp912
a(g22
S'false'
p913
tp914
a(g175
S'METHOD_CALLED'
p915
tp916
a(g25
S'<init>'
p917
tp918
a(g28
S'([B)V'
p919
tp920
aa(lp921
(g32
S'167'
p922
tp923
a(g35
S'98'
p924
tp925
a(g38
S'edu/uci/ics/crawler4j/robotstxt/RobotstxtServer.java'
p926
tp927
a(g41
S'RobotstxtServer.java'
p928
tp929
a(g16
S'edu.uci.ics.crawler4j.robotstxt.RobotstxtServer'
p930
tp931
a(g46
S'98'
p932
tp933
a(g49
S'167'
p934
tp935
aaa(lp936
(lp937
(g3
g173
tp938
a(g6
S'I18N'
p939
tp940
a(g9
S'Dm'
p941
tp942
a(g12
S'DM_DEFAULT_ENCODING'
p943
tp944
aa(lp945
(g16
S'edu.uci.ics.crawler4j.url.TLDList'
p946
tp947
aa(lp948
(g16
S'edu.uci.ics.crawler4j.url.TLDList'
p949
tp950
a(g22
S'false'
p951
tp952
a(g25
S'<init>'
p953
tp954
a(g28
S'()V'
p955
tp956
aa(lp957
(g16
S'java.io.InputStreamReader'
p958
tp959
a(g22
S'false'
p960
tp961
a(g175
S'METHOD_CALLED'
p962
tp963
a(g25
S'<init>'
p964
tp965
a(g28
S'(Ljava/io/InputStream;)V'
p966
tp967
aa(lp968
(g32
S'59'
p969
tp970
a(g35
S'25'
p971
tp972
a(g38
S'edu/uci/ics/crawler4j/url/TLDList.java'
p973
tp974
a(g41
S'TLDList.java'
p975
tp976
a(g16
S'edu.uci.ics.crawler4j.url.TLDList'
p977
tp978
a(g46
S'25'
p979
tp980
a(g49
S'59'
p981
tp982
aaa(lp983
(lp984
(g3
g4
tp985
a(g6
S'BAD_PRACTICE'
p986
tp987
a(g9
S'Dm'
p988
tp989
a(g12
S'DM_EXIT'
p990
tp991
aa(lp992
(g16
S'edu.uci.ics.crawler4j.url.TLDList'
p993
tp994
aa(lp995
(g16
S'edu.uci.ics.crawler4j.url.TLDList'
p996
tp997
a(g22
S'false'
p998
tp999
a(g25
S'<init>'
p1000
tp1001
a(g28
S'()V'
p1002
tp1003
aa(lp1004
(g32
S'47'
p1005
tp1006
a(g35
S'22'
p1007
tp1008
a(g38
S'edu/uci/ics/crawler4j/url/TLDList.java'
p1009
tp1010
a(g41
S'TLDList.java'
p1011
tp1012
a(g16
S'edu.uci.ics.crawler4j.url.TLDList'
p1013
tp1014
a(g46
S'22'
p1015
tp1016
a(g49
S'47'
p1017
tp1018
aaa(lp1019
(lp1020
(g3
g4
tp1021
a(g6
S'PERFORMANCE'
p1022
tp1023
a(g9
S'SS'
p1024
tp1025
a(g12
S'SS_SHOULD_BE_STATIC'
p1026
tp1027
aa(lp1028
(g16
S'edu.uci.ics.crawler4j.url.TLDList'
p1029
tp1030
aa(lp1031
(g16
S'edu.uci.ics.crawler4j.url.TLDList'
p1032
tp1033
a(g22
S'false'
p1034
tp1035
a(g25
S'tldNamesFileName'
p1036
tp1037
a(g28
S'Ljava/lang/String;'
p1038
tp1039
aa(lp1040
(g32
g829
tp1041
a(g35
S'11'
p1042
tp1043
a(g38
S'edu/uci/ics/crawler4j/url/TLDList.java'
p1044
tp1045
a(g41
S'TLDList.java'
p1046
tp1047
a(g16
S'edu.uci.ics.crawler4j.url.TLDList'
p1048
tp1049
a(g46
S'11'
p1050
tp1051
a(g49
g829
tp1052
aaa(lp1053
(lp1054
(g3
g173
tp1055
a(g6
S'BAD_PRACTICE'
p1056
tp1057
a(g9
S'ES'
p1058
tp1059
a(g12
S'ES_COMPARING_STRINGS_WITH_EQ'
p1060
tp1061
aa(lp1062
(g16
S'edu.uci.ics.crawler4j.url.URLCanonicalizer'
p1063
tp1064
aa(lp1065
(g16
S'edu.uci.ics.crawler4j.url.URLCanonicalizer'
p1066
tp1067
a(g22
S'true'
p1068
tp1069
a(g25
S'getCanonicalURL'
p1070
tp1071
a(g28
S'(Ljava/lang/String;Ljava/lang/String;)Ljava/lang/String;'
p1072
tp1073
aa(lp1074
(S'descriptor'
p1075
S'Ljava/lang/String;'
p1076
tp1077
a(g175
S'TYPE_FOUND'
p1078
tp1079
aa(lp1080
(g175
S'STRING_CONSTANT'
p1081
tp1082
a(S'value'
p1083
S''
p1084
tp1085
aa(lp1086
(g170
S'31'
p1087
tp1088
a(g172
S'3'
p1089
tp1090
a(g175
S'LOCAL_VARIABLE_VALUE_OF'
p1091
tp1092
a(g25
S'host'
p1093
tp1094
aa(lp1095
(g32
S'33'
p1096
tp1097
a(g35
S'49'
p1098
tp1099
a(g38
S'edu/uci/ics/crawler4j/url/URLCanonicalizer.java'
p1100
tp1101
a(g41
S'URLCanonicalizer.java'
p1102
tp1103
a(g16
S'edu.uci.ics.crawler4j.url.URLCanonicalizer'
p1104
tp1105
a(g46
S'49'
p1106
tp1107
a(g49
S'33'
p1108
tp1109
aa(lp1110
(g25
S'edu.umd.cs.findbugs.detect.RefComparisonWarningProperty.DYNAMIC_AND_UNKNOWN'
p1111
tp1112
a(g1083
S'true'
p1113
tp1114
aaa(lp1115
(lp1116
(g3
g4
tp1117
a(g6
S'STYLE'
p1118
tp1119
a(g9
S'SF'
p1120
tp1121
a(g12
S'SF_SWITCH_NO_DEFAULT'
p1122
tp1123
aa(lp1124
(g16
S'edu.uci.ics.crawler4j.url.URLCanonicalizer'
p1125
tp1126
aa(lp1127
(g16
S'edu.uci.ics.crawler4j.url.URLCanonicalizer'
p1128
tp1129
a(g22
S'true'
p1130
tp1131
a(g25
S'createParameterMap'
p1132
tp1133
a(g28
S'(Ljava/lang/String;)Ljava/util/SortedMap;'
p1134
tp1135
aa(lp1136
(g32
S'161'
p1137
tp1138
a(g35
S'151'
p1139
tp1140
a(g38
S'edu/uci/ics/crawler4j/url/URLCanonicalizer.java'
p1141
tp1142
a(g41
S'URLCanonicalizer.java'
p1143
tp1144
a(g16
S'edu.uci.ics.crawler4j.url.URLCanonicalizer'
p1145
tp1146
a(g46
S'142'
p1147
tp1148
a(g49
S'76'
p1149
tp1150
aaa.