(lp0
(lp1
(lp2
(S'priority'
p3
S'2'
p4
tp5
a(S'category'
p6
S'STYLE'
p7
tp8
a(S'abbrev'
p9
S'BC'
p10
tp11
a(S'type'
p12
S'BC_UNCONFIRMED_CAST'
p13
tp14
a(S'tag'
p15
S'BugInstance'
p16
tp17
aa(lp18
(S'classname'
p19
S'org.lobobrowser.async.AsyncResultImpl$EventListenerWrapper'
p20
tp21
a(g15
S'Class'
p22
tp23
aa(lp24
(g19
S'org.lobobrowser.async.AsyncResultImpl$EventListenerWrapper'
p25
tp26
a(S'isStatic'
p27
S'false'
p28
tp29
a(S'name'
p30
S'processEvent'
p31
tp32
a(S'signature'
p33
S'(Ljava/util/EventObject;)V'
p34
tp35
a(g15
S'Method'
p36
tp37
aa(lp38
(S'descriptor'
p39
S'Ljava/util/EventObject;'
p40
tp41
a(S'role'
p42
S'TYPE_FOUND'
p43
tp44
a(g15
S'Type'
p45
tp46
aa(lp47
(g39
S'Lorg/lobobrowser/async/AsyncResultEvent;'
p48
tp49
a(g42
S'TYPE_EXPECTED'
p50
tp51
a(g15
g45
tp52
aa(lp53
(S'pc'
p54
S'0'
p55
tp56
a(S'register'
p57
S'1'
p58
tp59
a(g42
S'LOCAL_VARIABLE_VALUE_OF'
p60
tp61
a(g30
S'event'
p62
tp63
a(g15
S'LocalVariable'
p64
tp65
aa(lp66
(S'endBytecode'
p67
g58
tp68
a(S'end'
p69
S'151'
p70
tp71
a(S'sourcepath'
p72
S'org/lobobrowser/async/AsyncResultImpl.java'
p73
tp74
a(S'sourcefile'
p75
S'AsyncResultImpl.java'
p76
tp77
a(g19
S'org.lobobrowser.async.AsyncResultImpl$EventListenerWrapper'
p78
tp79
a(S'start'
p80
S'151'
p81
tp82
a(S'startBytecode'
p83
g58
tp84
a(g15
S'SourceLine'
p85
tp86
aaa(lp87
(lp88
(g3
g4
tp89
a(g6
S'MT_CORRECTNESS'
p90
tp91
a(g9
S'DC'
p92
tp93
a(g12
S'DC_DOUBLECHECK'
p94
tp95
a(g15
g16
tp96
aa(lp97
(g19
S'org.lobobrowser.context.ClientletFactory'
p98
tp99
a(g15
g22
tp100
aa(lp101
(g19
S'org.lobobrowser.context.ClientletFactory'
p102
tp103
a(g27
S'true'
p104
tp105
a(g30
S'getInstance'
p106
tp107
a(g33
S'()Lorg/lobobrowser/context/ClientletFactory;'
p108
tp109
a(g15
g36
tp110
aa(lp111
(g19
S'org.lobobrowser.context.ClientletFactory'
p112
tp113
a(g27
S'true'
p114
tp115
a(g42
S'FIELD_ON'
p116
tp117
a(g30
S'instance'
p118
tp119
a(g33
S'Lorg/lobobrowser/context/ClientletFactory;'
p120
tp121
a(g15
S'Field'
p122
tp123
aa(lp124
(g67
S'14'
p125
tp126
a(g69
S'43'
p127
tp128
a(g72
S'org/lobobrowser/context/ClientletFactory.java'
p129
tp130
a(g75
S'ClientletFactory.java'
p131
tp132
a(g19
S'org.lobobrowser.context.ClientletFactory'
p133
tp134
a(g80
S'39'
p135
tp136
a(g83
S'3'
p137
tp138
a(g15
g85
tp139
aaa(lp140
(lp141
(g3
g4
tp142
a(g6
S'STYLE'
p143
tp144
a(g9
S'BC'
p145
tp146
a(g12
S'BC_UNCONFIRMED_CAST'
p147
tp148
a(g15
g16
tp149
aa(lp150
(g19
S'org.lobobrowser.context.NetworkRequestImpl$1'
p151
tp152
a(g15
g22
tp153
aa(lp154
(g19
S'org.lobobrowser.context.NetworkRequestImpl$1'
p155
tp156
a(g27
S'false'
p157
tp158
a(g30
S'processEvent'
p159
tp160
a(g33
S'(Ljava/util/EventObject;)V'
p161
tp162
a(g15
g36
tp163
aa(lp164
(g39
S'Ljava/util/EventObject;'
p165
tp166
a(g42
S'TYPE_FOUND'
p167
tp168
a(g15
g45
tp169
aa(lp170
(g39
S'Lorg/lobobrowser/ua/NetworkRequestEvent;'
p171
tp172
a(g42
S'TYPE_EXPECTED'
p173
tp174
a(g15
g45
tp175
aa(lp176
(g54
S'4'
p177
tp178
a(g57
g58
tp179
a(g42
S'LOCAL_VARIABLE_VALUE_OF'
p180
tp181
a(g30
S'event'
p182
tp183
a(g15
g64
tp184
aa(lp185
(g67
S'5'
p186
tp187
a(g69
S'187'
p188
tp189
a(g72
S'org/lobobrowser/context/NetworkRequestImpl.java'
p190
tp191
a(g75
S'NetworkRequestImpl.java'
p192
tp193
a(g19
S'org.lobobrowser.context.NetworkRequestImpl$1'
p194
tp195
a(g80
S'187'
p196
tp197
a(g83
g186
tp198
a(g15
g85
tp199
aaa(lp200
(lp201
(g3
g4
tp202
a(g6
S'PERFORMANCE'
p203
tp204
a(g9
S'Bx'
p205
tp206
a(g12
S'DM_NUMBER_CTOR'
p207
tp208
a(g15
g16
tp209
aa(lp210
(g19
S'org.lobobrowser.context.VolatileContentImpl'
p211
tp212
a(g15
g22
tp213
aa(lp214
(g19
S'org.lobobrowser.context.VolatileContentImpl'
p215
tp216
a(g27
S'false'
p217
tp218
a(g30
S'<init>'
p219
tp220
a(g33
S'(Ljava/lang/String;[B)V'
p221
tp222
a(g15
g36
tp223
aa(lp224
(g19
S'java.lang.Long'
p225
tp226
a(g27
S'false'
p227
tp228
a(g42
S'METHOD_CALLED'
p229
tp230
a(g30
S'<init>'
p231
tp232
a(g33
S'(J)V'
p233
tp234
a(g15
g36
tp235
aa(lp236
(g19
S'java.lang.Long'
p237
tp238
a(g27
S'true'
p239
tp240
a(g42
S'SHOULD_CALL'
p241
tp242
a(g30
S'valueOf'
p243
tp244
a(g33
S'(J)V'
p245
tp246
a(g15
g36
tp247
aa(lp248
(g67
S'38'
p249
tp250
a(g69
S'52'
p251
tp252
a(g72
S'org/lobobrowser/context/VolatileContentImpl.java'
p253
tp254
a(g75
S'VolatileContentImpl.java'
p255
tp256
a(g19
S'org.lobobrowser.context.VolatileContentImpl'
p257
tp258
a(g80
S'52'
p259
tp260
a(g83
S'38'
p261
tp262
a(g15
g85
tp263
aaa(lp264
(lp265
(g3
g4
tp266
a(g6
S'PERFORMANCE'
p267
tp268
a(g9
S'Bx'
p269
tp270
a(g12
S'DM_NUMBER_CTOR'
p271
tp272
a(g15
g16
tp273
aa(lp274
(g19
S'org.lobobrowser.context.VolatileContentImpl'
p275
tp276
a(g15
g22
tp277
aa(lp278
(g19
S'org.lobobrowser.context.VolatileContentImpl'
p279
tp280
a(g27
S'true'
p281
tp282
a(g30
S'getVolatileContent'
p283
tp284
a(g33
S'(J)Lorg/lobobrowser/context/VolatileContentImpl;'
p285
tp286
a(g15
g36
tp287
aa(lp288
(g19
S'java.lang.Long'
p289
tp290
a(g27
S'false'
p291
tp292
a(g42
S'METHOD_CALLED'
p293
tp294
a(g30
S'<init>'
p295
tp296
a(g33
S'(J)V'
p297
tp298
a(g15
g36
tp299
aa(lp300
(g19
S'java.lang.Long'
p301
tp302
a(g27
S'true'
p303
tp304
a(g42
S'SHOULD_CALL'
p305
tp306
a(g30
S'valueOf'
p307
tp308
a(g33
S'(J)V'
p309
tp310
a(g15
g36
tp311
aa(lp312
(g67
S'14'
p313
tp314
a(g69
S'69'
p315
tp316
a(g72
S'org/lobobrowser/context/VolatileContentImpl.java'
p317
tp318
a(g75
S'VolatileContentImpl.java'
p319
tp320
a(g19
S'org.lobobrowser.context.VolatileContentImpl'
p321
tp322
a(g80
S'69'
p323
tp324
a(g83
S'14'
p325
tp326
a(g15
g85
tp327
aaa(lp328
(lp329
(g3
g4
tp330
a(g6
S'MALICIOUS_CODE'
p331
tp332
a(g9
S'EI'
p333
tp334
a(g12
S'EI_EXPOSE_REP'
p335
tp336
a(g15
g16
tp337
aa(lp338
(g19
S'org.lobobrowser.context.VolatileContentImpl'
p339
tp340
a(g15
g22
tp341
aa(lp342
(g19
S'org.lobobrowser.context.VolatileContentImpl'
p343
tp344
a(g27
S'false'
p345
tp346
a(g30
S'getBytes'
p347
tp348
a(g33
S'()[B'
p349
tp350
a(g15
g36
tp351
aa(lp352
(g19
S'org.lobobrowser.context.VolatileContentImpl'
p353
tp354
a(g27
S'false'
p355
tp356
a(g30
S'bytes'
p357
tp358
a(g33
S'[B'
p359
tp360
a(g15
g122
tp361
aa(lp362
(g67
g177
tp363
a(g69
S'77'
p364
tp365
a(g72
S'org/lobobrowser/context/VolatileContentImpl.java'
p366
tp367
a(g75
S'VolatileContentImpl.java'
p368
tp369
a(g19
S'org.lobobrowser.context.VolatileContentImpl'
p370
tp371
a(g80
S'77'
p372
tp373
a(g83
g177
tp374
a(g15
g85
tp375
aaa(lp376
(lp377
(g3
g4
tp378
a(g6
S'MALICIOUS_CODE'
p379
tp380
a(g9
S'EI2'
p381
tp382
a(g12
S'EI_EXPOSE_REP2'
p383
tp384
a(g15
g16
tp385
aa(lp386
(g19
S'org.lobobrowser.context.VolatileContentImpl'
p387
tp388
a(g15
g22
tp389
aa(lp390
(g19
S'org.lobobrowser.context.VolatileContentImpl'
p391
tp392
a(g27
S'false'
p393
tp394
a(g30
S'<init>'
p395
tp396
a(g33
S'(Ljava/lang/String;[B)V'
p397
tp398
a(g15
g36
tp399
aa(lp400
(g19
S'org.lobobrowser.context.VolatileContentImpl'
p401
tp402
a(g27
S'false'
p403
tp404
a(g30
S'bytes'
p405
tp406
a(g33
S'[B'
p407
tp408
a(g15
g122
tp409
aa(lp410
(g54
S'18'
p411
tp412
a(g57
g4
tp413
a(g42
S'LOCAL_VARIABLE_NAMED'
p414
tp415
a(g30
S'bytes'
p416
tp417
a(g15
g64
tp418
aa(lp419
(g67
S'18'
p420
tp421
a(g69
S'50'
p422
tp423
a(g72
S'org/lobobrowser/context/VolatileContentImpl.java'
p424
tp425
a(g75
S'VolatileContentImpl.java'
p426
tp427
a(g19
S'org.lobobrowser.context.VolatileContentImpl'
p428
tp429
a(g80
S'50'
p430
tp431
a(g83
S'18'
p432
tp433
a(g15
g85
tp434
aaa(lp435
(lp436
(g3
g4
tp437
a(g6
S'BAD_PRACTICE'
p438
tp439
a(g9
S'Se'
p440
tp441
a(g12
S'SE_BAD_FIELD_STORE'
p442
tp443
a(g15
g16
tp444
aa(lp445
(g19
S'org.lobobrowser.gui.BrowserPanel'
p446
tp447
a(g15
g22
tp448
aa(lp449
(g19
S'org.lobobrowser.gui.BrowserPanel'
p450
tp451
a(g27
S'false'
p452
tp453
a(g30
S'EVENT'
p454
tp455
a(g33
S'Lorg/lobobrowser/util/EventDispatch2;'
p456
tp457
a(g15
g122
tp458
aa(lp459
(g39
S'Lorg/lobobrowser/gui/BrowserPanel$LocalEventDispatch;'
p460
tp461
a(g42
S'TYPE_FOUND'
p462
tp463
a(g15
g45
tp464
aa(lp465
(g67
S'25'
p466
tp467
a(g69
S'174'
p468
tp469
a(g72
S'org/lobobrowser/gui/BrowserPanel.java'
p470
tp471
a(g75
S'BrowserPanel.java'
p472
tp473
a(g19
S'org.lobobrowser.gui.BrowserPanel'
p474
tp475
a(g80
S'174'
p476
tp477
a(g83
S'25'
p478
tp479
a(g15
g85
tp480
aaa(lp481
(lp482
(g3
g4
tp483
a(g6
S'STYLE'
p484
tp485
a(g9
S'SF'
p486
tp487
a(g12
S'SF_SWITCH_NO_DEFAULT'
p488
tp489
a(g15
g16
tp490
aa(lp491
(g19
S'org.lobobrowser.gui.BrowserPanel$LocalEventDispatch'
p492
tp493
a(g15
g22
tp494
aa(lp495
(g19
S'org.lobobrowser.gui.BrowserPanel$LocalEventDispatch'
p496
tp497
a(g27
S'false'
p498
tp499
a(g30
S'dispatchEvent'
p500
tp501
a(g33
S'(Ljava/util/EventListener;Ljava/util/EventObject;)V'
p502
tp503
a(g15
g36
tp504
aa(lp505
(g67
S'126'
p506
tp507
a(g69
S'549'
p508
tp509
a(g72
S'org/lobobrowser/gui/BrowserPanel.java'
p510
tp511
a(g75
S'BrowserPanel.java'
p512
tp513
a(g19
S'org.lobobrowser.gui.BrowserPanel$LocalEventDispatch'
p514
tp515
a(g80
S'535'
p516
tp517
a(g83
S'22'
p518
tp519
a(g15
g85
tp520
aaa(lp521
(lp522
(g3
g4
tp523
a(g6
S'PERFORMANCE'
p524
tp525
a(g9
S'SIC'
p526
tp527
a(g12
S'SIC_INNER_SHOULD_BE_STATIC'
p528
tp529
a(g15
g16
tp530
aa(lp531
(g19
S'org.lobobrowser.gui.BrowserPanel$LocalEventDispatch'
p532
tp533
a(g15
g22
tp534
aaa(lp535
(lp536
(g3
g58
tp537
a(g6
S'I18N'
p538
tp539
a(g9
S'Dm'
p540
tp541
a(g12
S'DM_DEFAULT_ENCODING'
p542
tp543
a(g15
g16
tp544
aa(lp545
(g19
S'org.lobobrowser.gui.ConsoleModel'
p546
tp547
a(g15
g22
tp548
aa(lp549
(g19
S'org.lobobrowser.gui.ConsoleModel'
p550
tp551
a(g27
S'false'
p552
tp553
a(g30
S'getPrintStream'
p554
tp555
a(g33
S'()Ljava/io/PrintStream;'
p556
tp557
a(g15
g36
tp558
aa(lp559
(g19
S'java.io.PrintStream'
p560
tp561
a(g27
S'false'
p562
tp563
a(g42
S'METHOD_CALLED'
p564
tp565
a(g30
S'<init>'
p566
tp567
a(g33
S'(Ljava/io/OutputStream;)V'
p568
tp569
a(g15
g36
tp570
aa(lp571
(g67
S'8'
p572
tp573
a(g69
S'70'
p574
tp575
a(g72
S'org/lobobrowser/gui/ConsoleModel.java'
p576
tp577
a(g75
S'ConsoleModel.java'
p578
tp579
a(g19
S'org.lobobrowser.gui.ConsoleModel'
p580
tp581
a(g80
S'70'
p582
tp583
a(g83
g572
tp584
a(g15
g85
tp585
aaa(lp586
(lp587
(g3
g4
tp588
a(g6
S'BAD_PRACTICE'
p589
tp590
a(g9
S'Se'
p591
tp592
a(g12
S'SE_BAD_FIELD_STORE'
p593
tp594
a(g15
g16
tp595
aa(lp596
(g19
S'org.lobobrowser.gui.ConsoleModel'
p597
tp598
a(g15
g22
tp599
aa(lp600
(g19
S'org.lobobrowser.gui.ConsoleModel'
p601
tp602
a(g27
S'false'
p603
tp604
a(g30
S'outputStream'
p605
tp606
a(g33
S'Ljava/io/OutputStream;'
p607
tp608
a(g15
g122
tp609
aa(lp610
(g39
S'Lorg/lobobrowser/gui/ConsoleModel$LocalOutputStream;'
p611
tp612
a(g42
S'TYPE_FOUND'
p613
tp614
a(g15
g45
tp615
aa(lp616
(g67
S'13'
p617
tp618
a(g69
S'44'
p619
tp620
a(g72
S'org/lobobrowser/gui/ConsoleModel.java'
p621
tp622
a(g75
S'ConsoleModel.java'
p623
tp624
a(g19
S'org.lobobrowser.gui.ConsoleModel'
p625
tp626
a(g80
S'44'
p627
tp628
a(g83
S'13'
p629
tp630
a(g15
g85
tp631
aaa(lp632
(lp633
(g3
g4
tp634
a(g6
S'STYLE'
p635
tp636
a(g9
S'DLS'
p637
tp638
a(g12
S'DLS_DEAD_LOCAL_STORE'
p639
tp640
a(g15
g16
tp641
aa(lp642
(g19
S'org.lobobrowser.gui.DefaultWindowFactory'
p643
tp644
a(g15
g22
tp645
aa(lp646
(g19
S'org.lobobrowser.gui.DefaultWindowFactory'
p647
tp648
a(g27
S'false'
p649
tp650
a(g30
S'overrideProperties'
p651
tp652
a(g33
S'(Lorg/lobobrowser/gui/AbstractBrowserWindow;Ljava/util/Properties;)V'
p653
tp654
a(g15
g36
tp655
aa(lp656
(g54
S'51'
p657
tp658
a(g57
S'7'
p659
tp660
a(g42
S'LOCAL_VARIABLE_NAMED'
p661
tp662
a(g30
S'iconText'
p663
tp664
a(g15
g64
tp665
aa(lp666
(g67
S'49'
p667
tp668
a(g69
S'240'
p669
tp670
a(g72
S'org/lobobrowser/gui/DefaultWindowFactory.java'
p671
tp672
a(g75
S'DefaultWindowFactory.java'
p673
tp674
a(g19
S'org.lobobrowser.gui.DefaultWindowFactory'
p675
tp676
a(g80
S'240'
p677
tp678
a(g83
S'49'
p679
tp680
a(g15
g85
tp681
aa(lp682
(g30
S'edu.umd.cs.findbugs.detect.DeadLocalStoreProperty.BASE_VALUE'
p683
tp684
a(S'value'
p685
S'true'
p686
tp687
a(g15
S'Property'
p688
tp689
aa(lp690
(g30
S'edu.umd.cs.findbugs.detect.DeadLocalStoreProperty.LOCAL_NAME'
p691
tp692
a(g685
S'iconText'
p693
tp694
a(g15
g688
tp695
aa(lp696
(g30
S'edu.umd.cs.findbugs.detect.DeadLocalStoreProperty.METHOD_RESULT'
p697
tp698
a(g685
S'true'
p699
tp700
a(g15
g688
tp701
aa(lp702
(g30
S'edu.umd.cs.findbugs.detect.DeadLocalStoreProperty.NO_LOADS'
p703
tp704
a(g685
S'true'
p705
tp706
a(g15
g688
tp707
aaa(lp708
(lp709
(g3
g4
tp710
a(g6
S'STYLE'
p711
tp712
a(g9
S'DLS'
p713
tp714
a(g12
S'DLS_DEAD_LOCAL_STORE'
p715
tp716
a(g15
g16
tp717
aa(lp718
(g19
S'org.lobobrowser.gui.DefaultWindowFactory'
p719
tp720
a(g15
g22
tp721
aa(lp722
(g19
S'org.lobobrowser.gui.DefaultWindowFactory'
p723
tp724
a(g27
S'false'
p725
tp726
a(g30
S'overrideProperties'
p727
tp728
a(g33
S'(Lorg/lobobrowser/gui/AbstractBrowserWindow;Ljava/util/Properties;)V'
p729
tp730
a(g15
g36
tp731
aa(lp732
(g54
S'60'
p733
tp734
a(g57
g572
tp735
a(g42
S'LOCAL_VARIABLE_NAMED'
p736
tp737
a(g30
S'title'
p738
tp739
a(g15
g64
tp740
aa(lp741
(g67
S'58'
p742
tp743
a(g69
S'241'
p744
tp745
a(g72
S'org/lobobrowser/gui/DefaultWindowFactory.java'
p746
tp747
a(g75
S'DefaultWindowFactory.java'
p748
tp749
a(g19
S'org.lobobrowser.gui.DefaultWindowFactory'
p750
tp751
a(g80
S'241'
p752
tp753
a(g83
S'58'
p754
tp755
a(g15
g85
tp756
aa(lp757
(g30
S'edu.umd.cs.findbugs.detect.DeadLocalStoreProperty.BASE_VALUE'
p758
tp759
a(g685
S'true'
p760
tp761
a(g15
g688
tp762
aa(lp763
(g30
S'edu.umd.cs.findbugs.detect.DeadLocalStoreProperty.LOCAL_NAME'
p764
tp765
a(g685
S'title'
p766
tp767
a(g15
g688
tp768
aa(lp769
(g30
S'edu.umd.cs.findbugs.detect.DeadLocalStoreProperty.METHOD_RESULT'
p770
tp771
a(g685
S'true'
p772
tp773
a(g15
g688
tp774
aa(lp775
(g30
S'edu.umd.cs.findbugs.detect.DeadLocalStoreProperty.NO_LOADS'
p776
tp777
a(g685
S'true'
p778
tp779
a(g15
g688
tp780
aaa(lp781
(lp782
(g3
g4
tp783
a(g6
S'STYLE'
p784
tp785
a(g9
S'BC'
p786
tp787
a(g12
S'BC_UNCONFIRMED_CAST'
p788
tp789
a(g15
g16
tp790
aa(lp791
(g19
S'org.lobobrowser.gui.FramePanel$8'
p792
tp793
a(g15
g22
tp794
aa(lp795
(g19
S'org.lobobrowser.gui.FramePanel$8'
p796
tp797
a(g27
S'false'
p798
tp799
a(g30
S'processEvent'
p800
tp801
a(g33
S'(Ljava/util/EventObject;)V'
p802
tp803
a(g15
g36
tp804
aa(lp805
(g39
S'Ljava/util/EventObject;'
p806
tp807
a(g42
S'TYPE_FOUND'
p808
tp809
a(g15
g45
tp810
aa(lp811
(g39
S'Lorg/lobobrowser/ua/NavigatorProgressEvent;'
p812
tp813
a(g42
S'TYPE_EXPECTED'
p814
tp815
a(g15
g45
tp816
aa(lp817
(g54
g55
tp818
a(g57
g58
tp819
a(g42
S'LOCAL_VARIABLE_VALUE_OF'
p820
tp821
a(g30
S'event'
p822
tp823
a(g15
g64
tp824
aa(lp825
(g67
g58
tp826
a(g69
S'827'
p827
tp828
a(g72
S'org/lobobrowser/gui/FramePanel.java'
p829
tp830
a(g75
S'FramePanel.java'
p831
tp832
a(g19
S'org.lobobrowser.gui.FramePanel$8'
p833
tp834
a(g80
S'827'
p835
tp836
a(g83
g58
tp837
a(g15
g85
tp838
aaa(lp839
(lp840
(g3
g4
tp841
a(g6
S'STYLE'
p842
tp843
a(g9
S'BC'
p844
tp845
a(g12
S'BC_VACUOUS_INSTANCEOF'
p846
tp847
a(g15
g16
tp848
aa(lp849
(g19
S'org.lobobrowser.gui.NavigatorWindowImpl'
p850
tp851
a(g15
g22
tp852
aa(lp853
(g19
S'org.lobobrowser.gui.NavigatorWindowImpl'
p854
tp855
a(g27
S'false'
p856
tp857
a(g30
S'handleDocumentRenderingImpl'
p858
tp859
a(g33
S'(Lorg/lobobrowser/ua/NavigatorFrame;Lorg/lobobrowser/clientlet/ClientletResponse;Lorg/lobobrowser/clientlet/ComponentContent;)V'
p860
tp861
a(g15
g36
tp862
aa(lp863
(g39
S'Lorg/lobobrowser/gui/AbstractBrowserWindow;'
p864
tp865
a(g42
S'TYPE_FOUND'
p866
tp867
a(g15
g45
tp868
aa(lp869
(g39
S'Ljava/awt/Frame;'
p870
tp871
a(g42
S'TYPE_EXPECTED'
p872
tp873
a(g15
g45
tp874
aa(lp875
(g67
S'24'
p876
tp877
a(g69
S'328'
p878
tp879
a(g72
S'org/lobobrowser/gui/NavigatorWindowImpl.java'
p880
tp881
a(g75
S'NavigatorWindowImpl.java'
p882
tp883
a(g19
S'org.lobobrowser.gui.NavigatorWindowImpl'
p884
tp885
a(g80
S'328'
p886
tp887
a(g83
S'24'
p888
tp889
a(g15
g85
tp890
aaa(lp891
(lp892
(g3
g4
tp893
a(g6
S'STYLE'
p894
tp895
a(g9
S'BC'
p896
tp897
a(g12
S'BC_VACUOUS_INSTANCEOF'
p898
tp899
a(g15
g16
tp900
aa(lp901
(g19
S'org.lobobrowser.gui.NavigatorWindowImpl'
p902
tp903
a(g15
g22
tp904
aa(lp905
(g19
S'org.lobobrowser.gui.NavigatorWindowImpl'
p906
tp907
a(g27
S'false'
p908
tp909
a(g30
S'resetAsNavigator'
p910
tp911
a(g33
S'(Ljava/util/Properties;)V'
p912
tp913
a(g15
g36
tp914
aa(lp915
(g39
S'Lorg/lobobrowser/gui/AbstractBrowserWindow;'
p916
tp917
a(g42
S'TYPE_FOUND'
p918
tp919
a(g15
g45
tp920
aa(lp921
(g39
S'Ljava/awt/Frame;'
p922
tp923
a(g42
S'TYPE_EXPECTED'
p924
tp925
a(g15
g45
tp926
aa(lp927
(g67
S'142'
p928
tp929
a(g69
S'177'
p930
tp931
a(g72
S'org/lobobrowser/gui/NavigatorWindowImpl.java'
p932
tp933
a(g75
S'NavigatorWindowImpl.java'
p934
tp935
a(g19
S'org.lobobrowser.gui.NavigatorWindowImpl'
p936
tp937
a(g80
S'177'
p938
tp939
a(g83
S'142'
p940
tp941
a(g15
g85
tp942
aaa(lp943
(lp944
(g3
g58
tp945
a(g6
S'I18N'
p946
tp947
a(g9
S'Dm'
p948
tp949
a(g12
S'DM_DEFAULT_ENCODING'
p950
tp951
a(g15
g16
tp952
aa(lp953
(g19
S'org.lobobrowser.gui.NavigatorWindowImpl'
p954
tp955
a(g15
g22
tp956
aa(lp957
(g19
S'org.lobobrowser.gui.NavigatorWindowImpl'
p958
tp959
a(g27
S'true'
p960
tp961
a(g30
S'getPropertiesFromWindowFeatures'
p962
tp963
a(g33
S'(Ljava/lang/String;)Ljava/util/Properties;'
p964
tp965
a(g15
g36
tp966
aa(lp967
(g19
S'java.lang.String'
p968
tp969
a(g27
S'false'
p970
tp971
a(g42
S'METHOD_CALLED'
p972
tp973
a(g30
S'getBytes'
p974
tp975
a(g33
S'()[B'
p976
tp977
a(g15
g36
tp978
aa(lp979
(g67
S'69'
p980
tp981
a(g69
S'231'
p982
tp983
a(g72
S'org/lobobrowser/gui/NavigatorWindowImpl.java'
p984
tp985
a(g75
S'NavigatorWindowImpl.java'
p986
tp987
a(g19
S'org.lobobrowser.gui.NavigatorWindowImpl'
p988
tp989
a(g80
S'231'
p990
tp991
a(g83
S'69'
p992
tp993
a(g15
g85
tp994
aaa(lp995
(lp996
(g3
g4
tp997
a(g6
S'STYLE'
p998
tp999
a(g9
S'SF'
p1000
tp1001
a(g12
S'SF_SWITCH_NO_DEFAULT'
p1002
tp1003
a(g15
g16
tp1004
aa(lp1005
(g19
S'org.lobobrowser.gui.NavigatorWindowImpl$LocalEventDispatch'
p1006
tp1007
a(g15
g22
tp1008
aa(lp1009
(g19
S'org.lobobrowser.gui.NavigatorWindowImpl$LocalEventDispatch'
p1010
tp1011
a(g27
S'false'
p1012
tp1013
a(g30
S'dispatchEvent'
p1014
tp1015
a(g33
S'(Ljava/util/EventListener;Ljava/util/EventObject;)V'
p1016
tp1017
a(g15
g36
tp1018
aa(lp1019
(g67
S'126'
p1020
tp1021
a(g69
S'561'
p1022
tp1023
a(g72
S'org/lobobrowser/gui/NavigatorWindowImpl.java'
p1024
tp1025
a(g75
S'NavigatorWindowImpl.java'
p1026
tp1027
a(g19
S'org.lobobrowser.gui.NavigatorWindowImpl$LocalEventDispatch'
p1028
tp1029
a(g80
S'547'
p1030
tp1031
a(g83
S'22'
p1032
tp1033
a(g15
g85
tp1034
aaa(lp1035
(lp1036
(g3
g4
tp1037
a(g6
S'PERFORMANCE'
p1038
tp1039
a(g9
S'SIC'
p1040
tp1041
a(g12
S'SIC_INNER_SHOULD_BE_STATIC'
p1042
tp1043
a(g15
g16
tp1044
aa(lp1045
(g19
S'org.lobobrowser.gui.NavigatorWindowImpl$LocalEventDispatch'
p1046
tp1047
a(g15
g22
tp1048
aaa(lp1049
(lp1050
(g3
g4
tp1051
a(g6
S'MALICIOUS_CODE'
p1052
tp1053
a(g9
S'DP'
p1054
tp1055
a(g12
S'DP_CREATE_CLASSLOADER_INSIDE_DO_PRIVILEGED'
p1056
tp1057
a(g15
g16
tp1058
aa(lp1059
(g19
S'org.lobobrowser.main.Extension'
p1060
tp1061
a(g15
g22
tp1062
aa(lp1063
(g19
S'org.lobobrowser.main.Extension'
p1064
tp1065
a(g27
S'false'
p1066
tp1067
a(g30
S'initClassLoader'
p1068
tp1069
a(g33
S'(Ljava/lang/ClassLoader;)V'
p1070
tp1071
a(g15
g36
tp1072
aa(lp1073
(g19
S'org.lobobrowser.main.ExtensionClassLoader'
p1074
tp1075
a(g15
g22
tp1076
aa(lp1077
(g67
S'17'
p1078
tp1079
a(g69
S'159'
p1080
tp1081
a(g72
S'org/lobobrowser/main/Extension.java'
p1082
tp1083
a(g75
S'Extension.java'
p1084
tp1085
a(g19
S'org.lobobrowser.main.Extension'
p1086
tp1087
a(g80
S'159'
p1088
tp1089
a(g83
S'17'
p1090
tp1091
a(g15
g85
tp1092
aaa(lp1093
(lp1094
(g3
g4
tp1095
a(g6
S'EXPERIMENTAL'
p1096
tp1097
a(g9
S'OBL'
p1098
tp1099
a(g12
S'OBL_UNSATISFIED_OBLIGATION'
p1100
tp1101
a(g15
g16
tp1102
aa(lp1103
(g19
S'org.lobobrowser.main.Extension'
p1104
tp1105
a(g15
g22
tp1106
aa(lp1107
(g19
S'org.lobobrowser.main.Extension'
p1108
tp1109
a(g27
S'false'
p1110
tp1111
a(g30
S'<init>'
p1112
tp1113
a(g33
S'(Ljava/io/File;)V'
p1114
tp1115
a(g15
g36
tp1116
aa(lp1117
(g19
S'java.io.InputStream'
p1118
tp1119
a(g42
S'CLASS_REFTYPE'
p1120
tp1121
a(g15
g22
tp1122
aa(lp1123
(g42
S'INT_OBLIGATIONS_REMAINING'
p1124
tp1125
a(g685
g58
tp1126
a(g15
S'Int'
p1127
tp1128
aa(lp1129
(g67
S'102'
p1130
tp1131
a(g69
S'91'
p1132
tp1133
a(g72
S'org/lobobrowser/main/Extension.java'
p1134
tp1135
a(g75
S'Extension.java'
p1136
tp1137
a(g19
S'org.lobobrowser.main.Extension'
p1138
tp1139
a(g80
S'91'
p1140
tp1141
a(g83
S'102'
p1142
tp1143
a(g42
S'SOURCE_LINE_OBLIGATION_CREATED'
p1144
tp1145
a(g15
g85
tp1146
aa(lp1147
(g67
S'205'
p1148
tp1149
a(g69
S'103'
p1150
tp1151
a(g72
S'org/lobobrowser/main/Extension.java'
p1152
tp1153
a(g75
S'Extension.java'
p1154
tp1155
a(g19
S'org.lobobrowser.main.Extension'
p1156
tp1157
a(g80
S'103'
p1158
tp1159
a(g83
S'205'
p1160
tp1161
a(g42
S'SOURCE_LINE_PATH_CONTINUES'
p1162
tp1163
a(g15
g85
tp1164
aa(lp1165
(g67
S'218'
p1166
tp1167
a(g69
S'104'
p1168
tp1169
a(g72
S'org/lobobrowser/main/Extension.java'
p1170
tp1171
a(g75
S'Extension.java'
p1172
tp1173
a(g19
S'org.lobobrowser.main.Extension'
p1174
tp1175
a(g80
S'104'
p1176
tp1177
a(g83
S'218'
p1178
tp1179
a(g42
S'SOURCE_LINE_PATH_CONTINUES'
p1180
tp1181
a(g15
g85
tp1182
aa(lp1183
(g67
S'364'
p1184
tp1185
a(g69
S'132'
p1186
tp1187
a(g72
S'org/lobobrowser/main/Extension.java'
p1188
tp1189
a(g75
S'Extension.java'
p1190
tp1191
a(g19
S'org.lobobrowser.main.Extension'
p1192
tp1193
a(g80
S'132'
p1194
tp1195
a(g83
S'364'
p1196
tp1197
a(g42
S'SOURCE_LINE_PATH_CONTINUES'
p1198
tp1199
a(g15
g85
tp1200
aa(lp1201
(g67
S'369'
p1202
tp1203
a(g69
S'133'
p1204
tp1205
a(g72
S'org/lobobrowser/main/Extension.java'
p1206
tp1207
a(g75
S'Extension.java'
p1208
tp1209
a(g19
S'org.lobobrowser.main.Extension'
p1210
tp1211
a(g80
S'133'
p1212
tp1213
a(g83
S'369'
p1214
tp1215
a(g42
S'SOURCE_LINE_PATH_CONTINUES'
p1216
tp1217
a(g15
g85
tp1218
aa(lp1219
(g67
S'375'
p1220
tp1221
a(g69
S'135'
p1222
tp1223
a(g72
S'org/lobobrowser/main/Extension.java'
p1224
tp1225
a(g75
S'Extension.java'
p1226
tp1227
a(g19
S'org.lobobrowser.main.Extension'
p1228
tp1229
a(g80
S'135'
p1230
tp1231
a(g83
S'375'
p1232
tp1233
a(g42
S'SOURCE_LINE_PATH_CONTINUES'
p1234
tp1235
a(g15
g85
tp1236
aa(lp1237
(g42
S'STRING_REMAINING_OBLIGATIONS'
p1238
tp1239
a(g685
S'{InputStream x 1}'
p1240
tp1241
a(g15
S'String'
p1242
tp1243
aaa(lp1244
(lp1245
(g3
g4
tp1246
a(g6
S'BAD_PRACTICE'
p1247
tp1248
a(g9
S'OS'
p1249
tp1250
a(g12
S'OS_OPEN_STREAM'
p1251
tp1252
a(g15
g16
tp1253
aa(lp1254
(g19
S'org.lobobrowser.main.Extension'
p1255
tp1256
a(g15
g22
tp1257
aa(lp1258
(g19
S'org.lobobrowser.main.Extension'
p1259
tp1260
a(g27
S'false'
p1261
tp1262
a(g30
S'<init>'
p1263
tp1264
a(g33
S'(Ljava/io/File;)V'
p1265
tp1266
a(g15
g36
tp1267
aa(lp1268
(g39
S'Ljava/io/InputStream;'
p1269
tp1270
a(g42
S'TYPE_CLOSEIT'
p1271
tp1272
a(g15
g45
tp1273
aa(lp1274
(g67
S'97'
p1275
tp1276
a(g69
S'91'
p1277
tp1278
a(g72
S'org/lobobrowser/main/Extension.java'
p1279
tp1280
a(g75
S'Extension.java'
p1281
tp1282
a(g19
S'org.lobobrowser.main.Extension'
p1283
tp1284
a(g80
S'91'
p1285
tp1286
a(g83
S'97'
p1287
tp1288
a(g15
g85
tp1289
aaa(lp1290
(lp1291
(g3
g58
tp1292
a(g6
S'I18N'
p1293
tp1294
a(g9
S'Dm'
p1295
tp1296
a(g12
S'DM_DEFAULT_ENCODING'
p1297
tp1298
a(g15
g16
tp1299
aa(lp1300
(g19
S'org.lobobrowser.main.ReuseManager'
p1301
tp1302
a(g15
g22
tp1303
aa(lp1304
(g19
S'org.lobobrowser.main.ReuseManager'
p1305
tp1306
a(g27
S'false'
p1307
tp1308
a(g30
S'launch'
p1309
tp1310
a(g33
S'([Ljava/lang/String;)V'
p1311
tp1312
a(g15
g36
tp1313
aa(lp1314
(g19
S'java.io.OutputStreamWriter'
p1315
tp1316
a(g27
S'false'
p1317
tp1318
a(g42
S'METHOD_CALLED'
p1319
tp1320
a(g30
S'<init>'
p1321
tp1322
a(g33
S'(Ljava/io/OutputStream;)V'
p1323
tp1324
a(g15
g36
tp1325
aa(lp1326
(g67
S'156'
p1327
tp1328
a(g69
S'95'
p1329
tp1330
a(g72
S'org/lobobrowser/main/ReuseManager.java'
p1331
tp1332
a(g75
S'ReuseManager.java'
p1333
tp1334
a(g19
S'org.lobobrowser.main.ReuseManager'
p1335
tp1336
a(g80
S'95'
p1337
tp1338
a(g83
S'156'
p1339
tp1340
a(g15
g85
tp1341
aaa(lp1342
(lp1343
(g3
g4
tp1344
a(g6
S'BAD_PRACTICE'
p1345
tp1346
a(g9
S'OS'
p1347
tp1348
a(g12
S'OS_OPEN_STREAM'
p1349
tp1350
a(g15
g16
tp1351
aa(lp1352
(g19
S'org.lobobrowser.main.ReuseManager'
p1353
tp1354
a(g15
g22
tp1355
aa(lp1356
(g19
S'org.lobobrowser.main.ReuseManager'
p1357
tp1358
a(g27
S'false'
p1359
tp1360
a(g30
S'launch'
p1361
tp1362
a(g33
S'([Ljava/lang/String;)V'
p1363
tp1364
a(g15
g36
tp1365
aa(lp1366
(g39
S'Ljava/io/InputStream;'
p1367
tp1368
a(g42
S'TYPE_CLOSEIT'
p1369
tp1370
a(g15
g45
tp1371
aa(lp1372
(g67
S'59'
p1373
tp1374
a(g69
S'78'
p1375
tp1376
a(g72
S'org/lobobrowser/main/ReuseManager.java'
p1377
tp1378
a(g75
S'ReuseManager.java'
p1379
tp1380
a(g19
S'org.lobobrowser.main.ReuseManager'
p1381
tp1382
a(g80
S'78'
p1383
tp1384
a(g83
S'59'
p1385
tp1386
a(g15
g85
tp1387
aaa(lp1388
(lp1389
(g3
g4
tp1390
a(g6
S'BAD_PRACTICE'
p1391
tp1392
a(g9
S'OS'
p1393
tp1394
a(g12
S'OS_OPEN_STREAM'
p1395
tp1396
a(g15
g16
tp1397
aa(lp1398
(g19
S'org.lobobrowser.main.ReuseManager'
p1399
tp1400
a(g15
g22
tp1401
aa(lp1402
(g19
S'org.lobobrowser.main.ReuseManager'
p1403
tp1404
a(g27
S'false'
p1405
tp1406
a(g30
S'launch'
p1407
tp1408
a(g33
S'([Ljava/lang/String;)V'
p1409
tp1410
a(g15
g36
tp1411
aa(lp1412
(g39
S'Ljava/io/OutputStream;'
p1413
tp1414
a(g42
S'TYPE_CLOSEIT'
p1415
tp1416
a(g15
g45
tp1417
aa(lp1418
(g67
S'361'
p1419
tp1420
a(g69
S'138'
p1421
tp1422
a(g72
S'org/lobobrowser/main/ReuseManager.java'
p1423
tp1424
a(g75
S'ReuseManager.java'
p1425
tp1426
a(g19
S'org.lobobrowser.main.ReuseManager'
p1427
tp1428
a(g80
S'138'
p1429
tp1430
a(g83
S'361'
p1431
tp1432
a(g15
g85
tp1433
aaa(lp1434
(lp1435
(g3
g4
tp1436
a(g6
S'BAD_PRACTICE'
p1437
tp1438
a(g9
S'RV'
p1439
tp1440
a(g12
S'RV_RETURN_VALUE_IGNORED_BAD_PRACTICE'
p1441
tp1442
a(g15
g16
tp1443
aa(lp1444
(g19
S'org.lobobrowser.main.ReuseManager'
p1445
tp1446
a(g15
g22
tp1447
aa(lp1448
(g19
S'org.lobobrowser.main.ReuseManager'
p1449
tp1450
a(g27
S'false'
p1451
tp1452
a(g30
S'launch'
p1453
tp1454
a(g33
S'([Ljava/lang/String;)V'
p1455
tp1456
a(g15
g36
tp1457
aa(lp1458
(g19
S'java.io.File'
p1459
tp1460
a(g27
S'false'
p1461
tp1462
a(g42
S'METHOD_CALLED'
p1463
tp1464
a(g30
S'delete'
p1465
tp1466
a(g33
S'()Z'
p1467
tp1468
a(g15
g36
tp1469
aa(lp1470
(g67
S'110'
p1471
tp1472
a(g69
S'85'
p1473
tp1474
a(g72
S'org/lobobrowser/main/ReuseManager.java'
p1475
tp1476
a(g75
S'ReuseManager.java'
p1477
tp1478
a(g19
S'org.lobobrowser.main.ReuseManager'
p1479
tp1480
a(g80
S'85'
p1481
tp1482
a(g83
S'110'
p1483
tp1484
a(g15
g85
tp1485
aa(lp1486
(g67
S'306'
p1487
tp1488
a(g69
S'123'
p1489
tp1490
a(g72
S'org/lobobrowser/main/ReuseManager.java'
p1491
tp1492
a(g75
S'ReuseManager.java'
p1493
tp1494
a(g19
S'org.lobobrowser.main.ReuseManager'
p1495
tp1496
a(g80
S'123'
p1497
tp1498
a(g83
S'306'
p1499
tp1500
a(g42
S'SOURCE_LINE_ANOTHER_INSTANCE'
p1501
tp1502
a(g15
g85
tp1503
aaa(lp1504
(lp1505
(g3
g4
tp1506
a(g6
S'BAD_PRACTICE'
p1507
tp1508
a(g9
S'RV'
p1509
tp1510
a(g12
S'RV_RETURN_VALUE_IGNORED_BAD_PRACTICE'
p1511
tp1512
a(g15
g16
tp1513
aa(lp1514
(g19
S'org.lobobrowser.main.ReuseManager'
p1515
tp1516
a(g15
g22
tp1517
aa(lp1518
(g19
S'org.lobobrowser.main.ReuseManager'
p1519
tp1520
a(g27
S'false'
p1521
tp1522
a(g30
S'shutdown'
p1523
tp1524
a(g33
S'()V'
p1525
tp1526
a(g15
g36
tp1527
aa(lp1528
(g19
S'java.io.File'
p1529
tp1530
a(g27
S'false'
p1531
tp1532
a(g42
S'METHOD_CALLED'
p1533
tp1534
a(g30
S'delete'
p1535
tp1536
a(g33
S'()Z'
p1537
tp1538
a(g15
g36
tp1539
aa(lp1540
(g67
S'19'
p1541
tp1542
a(g69
S'53'
p1543
tp1544
a(g72
S'org/lobobrowser/main/ReuseManager.java'
p1545
tp1546
a(g75
S'ReuseManager.java'
p1547
tp1548
a(g19
S'org.lobobrowser.main.ReuseManager'
p1549
tp1550
a(g80
S'53'
p1551
tp1552
a(g83
S'19'
p1553
tp1554
a(g15
g85
tp1555
aaa(lp1556
(lp1557
(g3
g58
tp1558
a(g6
S'I18N'
p1559
tp1560
a(g9
S'Dm'
p1561
tp1562
a(g12
S'DM_DEFAULT_ENCODING'
p1563
tp1564
a(g15
g16
tp1565
aa(lp1566
(g19
S'org.lobobrowser.main.ReuseServer'
p1567
tp1568
a(g15
g22
tp1569
aa(lp1570
(g19
S'org.lobobrowser.main.ReuseServer'
p1571
tp1572
a(g27
S'false'
p1573
tp1574
a(g30
S'run'
p1575
tp1576
a(g33
S'()V'
p1577
tp1578
a(g15
g36
tp1579
aa(lp1580
(g19
S'java.io.InputStreamReader'
p1581
tp1582
a(g27
S'false'
p1583
tp1584
a(g42
S'METHOD_CALLED'
p1585
tp1586
a(g30
S'<init>'
p1587
tp1588
a(g33
S'(Ljava/io/InputStream;)V'
p1589
tp1590
a(g15
g36
tp1591
aa(lp1592
(g67
S'58'
p1593
tp1594
a(g69
S'106'
p1595
tp1596
a(g72
S'org/lobobrowser/main/ReuseServer.java'
p1597
tp1598
a(g75
S'ReuseServer.java'
p1599
tp1600
a(g19
S'org.lobobrowser.main.ReuseServer'
p1601
tp1602
a(g80
S'106'
p1603
tp1604
a(g83
S'58'
p1605
tp1606
a(g15
g85
tp1607
aaa(lp1608
(lp1609
(g3
g58
tp1610
a(g6
S'CORRECTNESS'
p1611
tp1612
a(g9
S'RV'
p1613
tp1614
a(g12
S'RV_ABSOLUTE_VALUE_OF_RANDOM_INT'
p1615
tp1616
a(g15
g16
tp1617
aa(lp1618
(g19
S'org.lobobrowser.main.ReuseServer'
p1619
tp1620
a(g15
g22
tp1621
aa(lp1622
(g19
S'org.lobobrowser.main.ReuseServer'
p1623
tp1624
a(g27
S'true'
p1625
tp1626
a(g30
S'getRandomPort'
p1627
tp1628
a(g33
S'()I'
p1629
tp1630
a(g15
g36
tp1631
aa(lp1632
(g67
S'6'
p1633
tp1634
a(g69
S'49'
p1635
tp1636
a(g72
S'org/lobobrowser/main/ReuseServer.java'
p1637
tp1638
a(g75
S'ReuseServer.java'
p1639
tp1640
a(g19
S'org.lobobrowser.main.ReuseServer'
p1641
tp1642
a(g80
S'49'
p1643
tp1644
a(g83
g1633
tp1645
a(g15
g85
tp1646
aaa(lp1647
(lp1648
(g3
g4
tp1649
a(g6
S'MT_CORRECTNESS'
p1650
tp1651
a(g9
S'IS'
p1652
tp1653
a(g12
S'IS2_INCONSISTENT_SYNC'
p1654
tp1655
a(g15
g16
tp1656
aa(lp1657
(g19
S'org.lobobrowser.request.AbstractRequestHandler$LocalHostnameVerifier'
p1658
tp1659
a(g15
g22
tp1660
aa(lp1661
(g19
S'org.lobobrowser.request.AbstractRequestHandler$LocalHostnameVerifier'
p1662
tp1663
a(g27
S'false'
p1664
tp1665
a(g30
S'verified'
p1666
tp1667
a(g33
S'Z'
p1668
tp1669
a(g15
g122
tp1670
aa(lp1671
(g42
S'INT_SYNC_PERCENT'
p1672
tp1673
a(g685
S'66'
p1674
tp1675
a(g15
g1127
tp1676
aa(lp1677
(g67
g4
tp1678
a(g69
S'95'
p1679
tp1680
a(g72
S'org/lobobrowser/request/AbstractRequestHandler.java'
p1681
tp1682
a(g75
S'AbstractRequestHandler.java'
p1683
tp1684
a(g19
S'org.lobobrowser.request.AbstractRequestHandler$LocalHostnameVerifier'
p1685
tp1686
a(g80
S'95'
p1687
tp1688
a(g83
g4
tp1689
a(g42
S'SOURCE_LINE_UNSYNC_ACCESS'
p1690
tp1691
a(g15
g85
tp1692
aa(lp1693
(g67
S'68'
p1694
tp1695
a(g69
S'123'
p1696
tp1697
a(g72
S'org/lobobrowser/request/AbstractRequestHandler.java'
p1698
tp1699
a(g75
S'AbstractRequestHandler.java'
p1700
tp1701
a(g19
S'org.lobobrowser.request.AbstractRequestHandler$LocalHostnameVerifier'
p1702
tp1703
a(g80
S'123'
p1704
tp1705
a(g83
S'68'
p1706
tp1707
a(g42
S'SOURCE_LINE_SYNC_ACCESS'
p1708
tp1709
a(g15
g85
tp1710
aa(lp1711
(g67
S'86'
p1712
tp1713
a(g69
S'113'
p1714
tp1715
a(g72
S'org/lobobrowser/request/AbstractRequestHandler.java'
p1716
tp1717
a(g75
S'AbstractRequestHandler.java'
p1718
tp1719
a(g19
S'org.lobobrowser.request.AbstractRequestHandler$LocalHostnameVerifier$1'
p1720
tp1721
a(g80
S'113'
p1722
tp1723
a(g83
S'86'
p1724
tp1725
a(g42
S'SOURCE_LINE_SYNC_ACCESS'
p1726
tp1727
a(g15
g85
tp1728
aaa(lp1729
(lp1730
(g3
g4
tp1731
a(g6
S'PERFORMANCE'
p1732
tp1733
a(g9
S'Bx'
p1734
tp1735
a(g12
S'DM_NUMBER_CTOR'
p1736
tp1737
a(g15
g16
tp1738
aa(lp1739
(g19
S'org.lobobrowser.request.CacheInfo'
p1740
tp1741
a(g15
g22
tp1742
aa(lp1743
(g19
S'org.lobobrowser.request.CacheInfo'
p1744
tp1745
a(g27
S'false'
p1746
tp1747
a(g30
S'getExpires'
p1748
tp1749
a(g33
S'()Ljava/lang/Long;'
p1750
tp1751
a(g15
g36
tp1752
aa(lp1753
(g19
S'java.lang.Long'
p1754
tp1755
a(g27
S'false'
p1756
tp1757
a(g42
S'METHOD_CALLED'
p1758
tp1759
a(g30
S'<init>'
p1760
tp1761
a(g33
S'(J)V'
p1762
tp1763
a(g15
g36
tp1764
aa(lp1765
(g19
S'java.lang.Long'
p1766
tp1767
a(g27
S'true'
p1768
tp1769
a(g42
S'SHOULD_CALL'
p1770
tp1771
a(g30
S'valueOf'
p1772
tp1773
a(g33
S'(J)V'
p1774
tp1775
a(g15
g36
tp1776
aa(lp1777
(g67
S'77'
p1778
tp1779
a(g69
S'130'
p1780
tp1781
a(g72
S'org/lobobrowser/request/CacheInfo.java'
p1782
tp1783
a(g75
S'CacheInfo.java'
p1784
tp1785
a(g19
S'org.lobobrowser.request.CacheInfo'
p1786
tp1787
a(g80
S'130'
p1788
tp1789
a(g83
S'77'
p1790
tp1791
a(g15
g85
tp1792
aaa(lp1793
(lp1794
(g3
g4
tp1795
a(g6
S'MALICIOUS_CODE'
p1796
tp1797
a(g9
S'EI'
p1798
tp1799
a(g12
S'EI_EXPOSE_REP'
p1800
tp1801
a(g15
g16
tp1802
aa(lp1803
(g19
S'org.lobobrowser.request.CacheInfo'
p1804
tp1805
a(g15
g22
tp1806
aa(lp1807
(g19
S'org.lobobrowser.request.CacheInfo'
p1808
tp1809
a(g27
S'false'
p1810
tp1811
a(g30
S'getPersistentContent'
p1812
tp1813
a(g33
S'()[B'
p1814
tp1815
a(g15
g36
tp1816
aa(lp1817
(g19
S'org.lobobrowser.request.CacheInfo'
p1818
tp1819
a(g27
S'false'
p1820
tp1821
a(g30
S'persistentContent'
p1822
tp1823
a(g33
S'[B'
p1824
tp1825
a(g15
g122
tp1826
aa(lp1827
(g67
g177
tp1828
a(g69
S'200'
p1829
tp1830
a(g72
S'org/lobobrowser/request/CacheInfo.java'
p1831
tp1832
a(g75
S'CacheInfo.java'
p1833
tp1834
a(g19
S'org.lobobrowser.request.CacheInfo'
p1835
tp1836
a(g80
S'200'
p1837
tp1838
a(g83
g177
tp1839
a(g15
g85
tp1840
aaa(lp1841
(lp1842
(g3
g4
tp1843
a(g6
S'MALICIOUS_CODE'
p1844
tp1845
a(g9
S'EI2'
p1846
tp1847
a(g12
S'EI_EXPOSE_REP2'
p1848
tp1849
a(g15
g16
tp1850
aa(lp1851
(g19
S'org.lobobrowser.request.CacheInfo'
p1852
tp1853
a(g15
g22
tp1854
aa(lp1855
(g19
S'org.lobobrowser.request.CacheInfo'
p1856
tp1857
a(g27
S'false'
p1858
tp1859
a(g30
S'<init>'
p1860
tp1861
a(g33
S'(Lorg/lobobrowser/request/MemoryCacheEntry;[BLjava/net/URL;)V'
p1862
tp1863
a(g15
g36
tp1864
aa(lp1865
(g19
S'org.lobobrowser.request.CacheInfo'
p1866
tp1867
a(g27
S'false'
p1868
tp1869
a(g30
S'persistentContent'
p1870
tp1871
a(g33
S'[B'
p1872
tp1873
a(g15
g122
tp1874
aa(lp1875
(g54
g1633
tp1876
a(g57
g4
tp1877
a(g42
S'LOCAL_VARIABLE_NAMED'
p1878
tp1879
a(g30
S'persContent'
p1880
tp1881
a(g15
g64
tp1882
aa(lp1883
(g67
g1633
tp1884
a(g69
S'48'
p1885
tp1886
a(g72
S'org/lobobrowser/request/CacheInfo.java'
p1887
tp1888
a(g75
S'CacheInfo.java'
p1889
tp1890
a(g19
S'org.lobobrowser.request.CacheInfo'
p1891
tp1892
a(g80
S'48'
p1893
tp1894
a(g83
g1633
tp1895
a(g15
g85
tp1896
aaa(lp1897
(lp1898
(g3
g4
tp1899
a(g6
S'STYLE'
p1900
tp1901
a(g9
S'RCN'
p1902
tp1903
a(g12
S'RCN_REDUNDANT_NULLCHECK_OF_NONNULL_VALUE'
p1904
tp1905
a(g15
g16
tp1906
aa(lp1907
(g19
S'org.lobobrowser.request.ClientletRequestHandler'
p1908
tp1909
a(g15
g22
tp1910
aa(lp1911
(g19
S'org.lobobrowser.request.ClientletRequestHandler'
p1912
tp1913
a(g27
S'false'
p1914
tp1915
a(g30
S'processResponse'
p1916
tp1917
a(g33
S'(Lorg/lobobrowser/clientlet/ClientletResponse;)V'
p1918
tp1919
a(g15
g36
tp1920
aa(lp1921
(g54
S'33'
p1922
tp1923
a(g57
g4
tp1924
a(g42
S'LOCAL_VARIABLE_VALUE_OF'
p1925
tp1926
a(g30
S'clientlet'
p1927
tp1928
a(g15
g64
tp1929
aa(lp1930
(g19
S'org.lobobrowser.context.ClientletFactory'
p1931
tp1932
a(g27
S'false'
p1933
tp1934
a(g42
S'METHOD_RETURN_VALUE_OF'
p1935
tp1936
a(g30
S'getClientlet'
p1937
tp1938
a(g33
S'(Lorg/lobobrowser/clientlet/ClientletRequest;Lorg/lobobrowser/clientlet/ClientletResponse;)Lorg/lobobrowser/clientlet/Clientlet;'
p1939
tp1940
a(g15
g36
tp1941
aa(lp1942
(g67
S'34'
p1943
tp1944
a(g69
S'83'
p1945
tp1946
a(g72
S'org/lobobrowser/request/ClientletRequestHandler.java'
p1947
tp1948
a(g75
S'ClientletRequestHandler.java'
p1949
tp1950
a(g19
S'org.lobobrowser.request.ClientletRequestHandler'
p1951
tp1952
a(g80
S'83'
p1953
tp1954
a(g83
S'34'
p1955
tp1956
a(g42
S'SOURCE_REDUNDANT_NULL_CHECK'
p1957
tp1958
a(g15
g85
tp1959
aaa(lp1960
(lp1961
(g3
g4
tp1962
a(g6
S'MALICIOUS_CODE'
p1963
tp1964
a(g9
S'EI'
p1965
tp1966
a(g12
S'EI_EXPOSE_REP'
p1967
tp1968
a(g15
g16
tp1969
aa(lp1970
(g19
S'org.lobobrowser.request.ClientletRequestImpl'
p1971
tp1972
a(g15
g22
tp1973
aa(lp1974
(g19
S'org.lobobrowser.request.ClientletRequestImpl'
p1975
tp1976
a(g27
S'false'
p1977
tp1978
a(g30
S'getExtraHeaders'
p1979
tp1980
a(g33
S'()[Lorg/lobobrowser/clientlet/Header;'
p1981
tp1982
a(g15
g36
tp1983
aa(lp1984
(g19
S'org.lobobrowser.request.ClientletRequestImpl'
p1985
tp1986
a(g27
S'false'
p1987
tp1988
a(g30
S'extraHeaders'
p1989
tp1990
a(g33
S'[Lorg/lobobrowser/clientlet/Header;'
p1991
tp1992
a(g15
g122
tp1993
aa(lp1994
(g67
g177
tp1995
a(g69
S'67'
p1996
tp1997
a(g72
S'org/lobobrowser/request/ClientletRequestImpl.java'
p1998
tp1999
a(g75
S'ClientletRequestImpl.java'
p2000
tp2001
a(g19
S'org.lobobrowser.request.ClientletRequestImpl'
p2002
tp2003
a(g80
S'67'
p2004
tp2005
a(g83
g177
tp2006
a(g15
g85
tp2007
aaa(lp2008
(lp2009
(g3
g4
tp2010
a(g6
S'MALICIOUS_CODE'
p2011
tp2012
a(g9
S'EI2'
p2013
tp2014
a(g12
S'EI_EXPOSE_REP2'
p2015
tp2016
a(g15
g16
tp2017
aa(lp2018
(g19
S'org.lobobrowser.request.ClientletRequestImpl'
p2019
tp2020
a(g15
g22
tp2021
aa(lp2022
(g19
S'org.lobobrowser.request.ClientletRequestImpl'
p2023
tp2024
a(g27
S'false'
p2025
tp2026
a(g30
S'<init>'
p2027
tp2028
a(g33
S'(ZLjava/net/URL;Ljava/lang/String;Lorg/lobobrowser/ua/ParameterInfo;[Lorg/lobobrowser/clientlet/Header;Ljava/lang/String;Ljava/lang/String;Lorg/lobobrowser/ua/RequestType;)V'
p2029
tp2030
a(g15
g36
tp2031
aa(lp2032
(g19
S'org.lobobrowser.request.ClientletRequestImpl'
p2033
tp2034
a(g27
S'false'
p2035
tp2036
a(g30
S'extraHeaders'
p2037
tp2038
a(g33
S'[Lorg/lobobrowser/clientlet/Header;'
p2039
tp2040
a(g15
g122
tp2041
aa(lp2042
(g54
S'23'
p2043
tp2044
a(g57
g186
tp2045
a(g42
S'LOCAL_VARIABLE_NAMED'
p2046
tp2047
a(g30
S'extraHeaders'
p2048
tp2049
a(g15
g64
tp2050
aa(lp2051
(g67
S'23'
p2052
tp2053
a(g69
S'43'
p2054
tp2055
a(g72
S'org/lobobrowser/request/ClientletRequestImpl.java'
p2056
tp2057
a(g75
S'ClientletRequestImpl.java'
p2058
tp2059
a(g19
S'org.lobobrowser.request.ClientletRequestImpl'
p2060
tp2061
a(g80
S'43'
p2062
tp2063
a(g83
S'23'
p2064
tp2065
a(g15
g85
tp2066
aaa(lp2067
(lp2068
(g3
g58
tp2069
a(g6
S'CORRECTNESS'
p2070
tp2071
a(g9
S'NP'
p2072
tp2073
a(g12
S'NP_NULL_ON_SOME_PATH'
p2074
tp2075
a(g15
g16
tp2076
aa(lp2077
(g19
S'org.lobobrowser.request.ClientletResponseImpl'
p2078
tp2079
a(g15
g22
tp2080
aa(lp2081
(g19
S'org.lobobrowser.request.ClientletResponseImpl'
p2082
tp2083
a(g27
S'false'
p2084
tp2085
a(g30
S'getTransientCachedObjectSize'
p2086
tp2087
a(g33
S'()I'
p2088
tp2089
a(g15
g36
tp2090
aa(lp2091
(g42
S'STRING_NONSTRING_CONSTANT'
p2092
tp2093
a(g685
S'null'
p2094
tp2095
a(g15
g1242
tp2096
aa(lp2097
(g67
S'20'
p2098
tp2099
a(g69
S'355'
p2100
tp2101
a(g72
S'org/lobobrowser/request/ClientletResponseImpl.java'
p2102
tp2103
a(g75
S'ClientletResponseImpl.java'
p2104
tp2105
a(g19
S'org.lobobrowser.request.ClientletResponseImpl'
p2106
tp2107
a(g80
S'355'
p2108
tp2109
a(g83
S'20'
p2110
tp2111
a(g42
S'SOURCE_LINE_DEREF'
p2112
tp2113
a(g15
g85
tp2114
aa(lp2115
(g67
S'10'
p2116
tp2117
a(g69
S'355'
p2118
tp2119
a(g72
S'org/lobobrowser/request/ClientletResponseImpl.java'
p2120
tp2121
a(g75
S'ClientletResponseImpl.java'
p2122
tp2123
a(g19
S'org.lobobrowser.request.ClientletResponseImpl'
p2124
tp2125
a(g80
S'355'
p2126
tp2127
a(g83
S'10'
p2128
tp2129
a(g42
S'SOURCE_LINE_KNOWN_NULL'
p2130
tp2131
a(g15
g85
tp2132
aaa(lp2133
(lp2134
(g3
g4
tp2135
a(g6
S'MT_CORRECTNESS'
p2136
tp2137
a(g9
S'STCAL'
p2138
tp2139
a(g12
S'STCAL_INVOKE_ON_STATIC_DATE_FORMAT_INSTANCE'
p2140
tp2141
a(g15
g16
tp2142
aa(lp2143
(g19
S'org.lobobrowser.request.ClientletResponseImpl'
p2144
tp2145
a(g15
g22
tp2146
aa(lp2147
(g19
S'org.lobobrowser.request.ClientletResponseImpl'
p2148
tp2149
a(g27
S'false'
p2150
tp2151
a(g30
S'getDate'
p2152
tp2153
a(g33
S'()Ljava/util/Date;'
p2154
tp2155
a(g15
g36
tp2156
aa(lp2157
(g19
S'java.text.DateFormat'
p2158
tp2159
a(g27
S'false'
p2160
tp2161
a(g42
S'METHOD_CALLED'
p2162
tp2163
a(g30
S'parse'
p2164
tp2165
a(g33
S'(Ljava/lang/String;)Ljava/util/Date;'
p2166
tp2167
a(g15
g36
tp2168
aa(lp2169
(g19
S'org.lobobrowser.util.Urls'
p2170
tp2171
a(g27
S'true'
p2172
tp2173
a(g30
S'PATTERN_RFC1123'
p2174
tp2175
a(g33
S'Ljava/text/DateFormat;'
p2176
tp2177
a(g15
g122
tp2178
aa(lp2179
(g67
S'21'
p2180
tp2181
a(g69
S'389'
p2182
tp2183
a(g72
S'org/lobobrowser/request/ClientletResponseImpl.java'
p2184
tp2185
a(g75
S'ClientletResponseImpl.java'
p2186
tp2187
a(g19
S'org.lobobrowser.request.ClientletResponseImpl'
p2188
tp2189
a(g80
S'389'
p2190
tp2191
a(g83
S'21'
p2192
tp2193
a(g15
g85
tp2194
aaa(lp2195
(lp2196
(g3
g4
tp2197
a(g6
S'STYLE'
p2198
tp2199
a(g9
S'BC'
p2200
tp2201
a(g12
S'BC_UNCONFIRMED_CAST'
p2202
tp2203
a(g15
g16
tp2204
aa(lp2205
(g19
S'org.lobobrowser.request.ClientletResponseImpl$1'
p2206
tp2207
a(g15
g22
tp2208
aa(lp2209
(g19
S'org.lobobrowser.request.ClientletResponseImpl$1'
p2210
tp2211
a(g27
S'false'
p2212
tp2213
a(g30
S'processEvent'
p2214
tp2215
a(g33
S'(Ljava/util/EventObject;)V'
p2216
tp2217
a(g15
g36
tp2218
aa(lp2219
(g39
S'Ljava/util/EventObject;'
p2220
tp2221
a(g42
S'TYPE_FOUND'
p2222
tp2223
a(g15
g45
tp2224
aa(lp2225
(g39
S'Lorg/lobobrowser/util/InputProgressEvent;'
p2226
tp2227
a(g42
S'TYPE_EXPECTED'
p2228
tp2229
a(g15
g45
tp2230
aa(lp2231
(g54
g55
tp2232
a(g57
g58
tp2233
a(g42
S'LOCAL_VARIABLE_VALUE_OF'
p2234
tp2235
a(g30
S'event'
p2236
tp2237
a(g15
g64
tp2238
aa(lp2239
(g67
g58
tp2240
a(g69
S'184'
p2241
tp2242
a(g72
S'org/lobobrowser/request/ClientletResponseImpl.java'
p2243
tp2244
a(g75
S'ClientletResponseImpl.java'
p2245
tp2246
a(g19
S'org.lobobrowser.request.ClientletResponseImpl$1'
p2247
tp2248
a(g80
S'184'
p2249
tp2250
a(g83
g58
tp2251
a(g15
g85
tp2252
aaa(lp2253
(lp2254
(g3
g4
tp2255
a(g6
S'CORRECTNESS'
p2256
tp2257
a(g9
S'RV'
p2258
tp2259
a(g12
S'RV_RETURN_VALUE_IGNORED'
p2260
tp2261
a(g15
g16
tp2262
aa(lp2263
(g19
S'org.lobobrowser.request.CookieStore'
p2264
tp2265
a(g15
g22
tp2266
aa(lp2267
(g19
S'org.lobobrowser.request.CookieStore'
p2268
tp2269
a(g27
S'false'
p2270
tp2271
a(g30
S'saveCookie'
p2272
tp2273
a(g33
S'(Ljava/lang/String;Ljava/lang/String;)V'
p2274
tp2275
a(g15
g36
tp2276
aa(lp2277
(g19
S'java.lang.String'
p2278
tp2279
a(g27
S'false'
p2280
tp2281
a(g42
S'METHOD_CALLED'
p2282
tp2283
a(g30
S'equalsIgnoreCase'
p2284
tp2285
a(g33
S'(Ljava/lang/String;)Z'
p2286
tp2287
a(g15
g36
tp2288
aa(lp2289
(g67
S'244'
p2290
tp2291
a(g69
S'115'
p2292
tp2293
a(g72
S'org/lobobrowser/request/CookieStore.java'
p2294
tp2295
a(g75
S'CookieStore.java'
p2296
tp2297
a(g19
S'org.lobobrowser.request.CookieStore'
p2298
tp2299
a(g80
S'115'
p2300
tp2301
a(g83
S'244'
p2302
tp2303
a(g15
g85
tp2304
aaa(lp2305
(lp2306
(g3
g4
tp2307
a(g6
S'MALICIOUS_CODE'
p2308
tp2309
a(g9
S'EI2'
p2310
tp2311
a(g12
S'EI_EXPOSE_REP2'
p2312
tp2313
a(g15
g16
tp2314
aa(lp2315
(g19
S'org.lobobrowser.request.FileWithHeadersURLConnection'
p2316
tp2317
a(g15
g22
tp2318
aa(lp2319
(g19
S'org.lobobrowser.request.FileWithHeadersURLConnection'
p2320
tp2321
a(g27
S'false'
p2322
tp2323
a(g30
S'<init>'
p2324
tp2325
a(g33
S'(Ljava/net/URL;[B)V'
p2326
tp2327
a(g15
g36
tp2328
aa(lp2329
(g19
S'org.lobobrowser.request.FileWithHeadersURLConnection'
p2330
tp2331
a(g27
S'false'
p2332
tp2333
a(g30
S'content'
p2334
tp2335
a(g33
S'[B'
p2336
tp2337
a(g15
g122
tp2338
aa(lp2339
(g54
S'34'
p2340
tp2341
a(g57
g4
tp2342
a(g42
S'LOCAL_VARIABLE_NAMED'
p2343
tp2344
a(g30
S'content'
p2345
tp2346
a(g15
g64
tp2347
aa(lp2348
(g67
S'34'
p2349
tp2350
a(g69
S'49'
p2351
tp2352
a(g72
S'org/lobobrowser/request/FileWithHeadersURLConnection.java'
p2353
tp2354
a(g75
S'FileWithHeadersURLConnection.java'
p2355
tp2356
a(g19
S'org.lobobrowser.request.FileWithHeadersURLConnection'
p2357
tp2358
a(g80
S'49'
p2359
tp2360
a(g83
S'34'
p2361
tp2362
a(g15
g85
tp2363
aaa(lp2364
(lp2365
(g3
g4
tp2366
a(g6
S'MALICIOUS_CODE'
p2367
tp2368
a(g9
S'EI2'
p2369
tp2370
a(g12
S'EI_EXPOSE_REP2'
p2371
tp2372
a(g15
g16
tp2373
aa(lp2374
(g19
S'org.lobobrowser.request.MemoryCacheEntry'
p2375
tp2376
a(g15
g22
tp2377
aa(lp2378
(g19
S'org.lobobrowser.request.MemoryCacheEntry'
p2379
tp2380
a(g27
S'false'
p2381
tp2382
a(g30
S'<init>'
p2383
tp2384
a(g33
S'([BLjava/util/List;Ljava/lang/Long;Ljava/lang/Object;I)V'
p2385
tp2386
a(g15
g36
tp2387
aa(lp2388
(g19
S'org.lobobrowser.request.MemoryCacheEntry'
p2389
tp2390
a(g27
S'false'
p2391
tp2392
a(g30
S'content'
p2393
tp2394
a(g33
S'[B'
p2395
tp2396
a(g15
g122
tp2397
aa(lp2398
(g54
g1633
tp2399
a(g57
g58
tp2400
a(g42
S'LOCAL_VARIABLE_NAMED'
p2401
tp2402
a(g30
S'content'
p2403
tp2404
a(g15
g64
tp2405
aa(lp2406
(g67
g1633
tp2407
a(g69
S'46'
p2408
tp2409
a(g72
S'org/lobobrowser/request/MemoryCacheEntry.java'
p2410
tp2411
a(g75
S'MemoryCacheEntry.java'
p2412
tp2413
a(g19
S'org.lobobrowser.request.MemoryCacheEntry'
p2414
tp2415
a(g80
S'46'
p2416
tp2417
a(g83
g1633
tp2418
a(g15
g85
tp2419
aaa(lp2420
(lp2421
(g3
g58
tp2422
a(g6
S'I18N'
p2423
tp2424
a(g9
S'Dm'
p2425
tp2426
a(g12
S'DM_DEFAULT_ENCODING'
p2427
tp2428
a(g15
g16
tp2429
aa(lp2430
(g19
S'org.lobobrowser.request.MultipartFormDataWriter'
p2431
tp2432
a(g15
g22
tp2433
aa(lp2434
(g19
S'org.lobobrowser.request.MultipartFormDataWriter'
p2435
tp2436
a(g27
S'true'
p2437
tp2438
a(g30
S'<clinit>'
p2439
tp2440
a(g33
S'()V'
p2441
tp2442
a(g15
g36
tp2443
aa(lp2444
(g19
S'java.lang.String'
p2445
tp2446
a(g27
S'false'
p2447
tp2448
a(g42
S'METHOD_CALLED'
p2449
tp2450
a(g30
S'getBytes'
p2451
tp2452
a(g33
S'()[B'
p2453
tp2454
a(g15
g36
tp2455
aa(lp2456
(g67
g4
tp2457
a(g69
S'31'
p2458
tp2459
a(g72
S'org/lobobrowser/request/MultipartFormDataWriter.java'
p2460
tp2461
a(g75
S'MultipartFormDataWriter.java'
p2462
tp2463
a(g19
S'org.lobobrowser.request.MultipartFormDataWriter'
p2464
tp2465
a(g80
S'31'
p2466
tp2467
a(g83
g4
tp2468
a(g15
g85
tp2469
aaa(lp2470
(lp2471
(g3
g58
tp2472
a(g6
S'I18N'
p2473
tp2474
a(g9
S'Dm'
p2475
tp2476
a(g12
S'DM_DEFAULT_ENCODING'
p2477
tp2478
a(g15
g16
tp2479
aa(lp2480
(g19
S'org.lobobrowser.request.RequestEngine'
p2481
tp2482
a(g15
g22
tp2483
aa(lp2484
(g19
S'org.lobobrowser.request.RequestEngine'
p2485
tp2486
a(g27
S'false'
p2487
tp2488
a(g30
S'postData'
p2489
tp2490
a(g33
S'(Ljava/net/URLConnection;Lorg/lobobrowser/ua/ParameterInfo;Ljava/lang/String;)V'
p2491
tp2492
a(g15
g36
tp2493
aa(lp2494
(g19
S'java.lang.String'
p2495
tp2496
a(g27
S'false'
p2497
tp2498
a(g42
S'METHOD_CALLED'
p2499
tp2500
a(g30
S'<init>'
p2501
tp2502
a(g33
S'([B)V'
p2503
tp2504
a(g15
g36
tp2505
aa(lp2506
(g67
S'271'
p2507
tp2508
a(g69
S'177'
p2509
tp2510
a(g72
S'org/lobobrowser/request/RequestEngine.java'
p2511
tp2512
a(g75
S'RequestEngine.java'
p2513
tp2514
a(g19
S'org.lobobrowser.request.RequestEngine'
p2515
tp2516
a(g80
S'177'
p2517
tp2518
a(g83
S'271'
p2519
tp2520
a(g15
g85
tp2521
aaa(lp2522
(lp2523
(g3
g58
tp2524
a(g6
S'CORRECTNESS'
p2525
tp2526
a(g9
S'RCN'
p2527
tp2528
a(g12
S'RCN_REDUNDANT_NULLCHECK_WOULD_HAVE_BEEN_A_NPE'
p2529
tp2530
a(g15
g16
tp2531
aa(lp2532
(g19
S'org.lobobrowser.request.RequestEngine'
p2533
tp2534
a(g15
g22
tp2535
aa(lp2536
(g19
S'org.lobobrowser.request.RequestEngine'
p2537
tp2538
a(g27
S'false'
p2539
tp2540
a(g30
S'postData'
p2541
tp2542
a(g33
S'(Ljava/net/URLConnection;Lorg/lobobrowser/ua/ParameterInfo;Ljava/lang/String;)V'
p2543
tp2544
a(g15
g36
tp2545
aa(lp2546
(g54
S'38'
p2547
tp2548
a(g57
g4
tp2549
a(g42
S'LOCAL_VARIABLE_VALUE_OF'
p2550
tp2551
a(g30
S'pinfo'
p2552
tp2553
a(g15
g64
tp2554
aa(lp2555
(g67
g659
tp2556
a(g69
S'136'
p2557
tp2558
a(g72
S'org/lobobrowser/request/RequestEngine.java'
p2559
tp2560
a(g75
S'RequestEngine.java'
p2561
tp2562
a(g19
S'org.lobobrowser.request.RequestEngine'
p2563
tp2564
a(g80
S'136'
p2565
tp2566
a(g83
g659
tp2567
a(g15
g85
tp2568
aa(lp2569
(g67
S'39'
p2570
tp2571
a(g69
S'139'
p2572
tp2573
a(g72
S'org/lobobrowser/request/RequestEngine.java'
p2574
tp2575
a(g75
S'RequestEngine.java'
p2576
tp2577
a(g19
S'org.lobobrowser.request.RequestEngine'
p2578
tp2579
a(g80
S'139'
p2580
tp2581
a(g83
S'39'
p2582
tp2583
a(g42
S'SOURCE_REDUNDANT_NULL_CHECK'
p2584
tp2585
a(g15
g85
tp2586
aa(lp2587
(g67
S'431'
p2588
tp2589
a(g69
S'207'
p2590
tp2591
a(g72
S'org/lobobrowser/request/RequestEngine.java'
p2592
tp2593
a(g75
S'RequestEngine.java'
p2594
tp2595
a(g19
S'org.lobobrowser.request.RequestEngine'
p2596
tp2597
a(g80
S'207'
p2598
tp2599
a(g83
S'431'
p2600
tp2601
a(g42
S'SOURCE_LINE_ANOTHER_INSTANCE'
p2602
tp2603
a(g15
g85
tp2604
aaa(lp2605
(lp2606
(g3
g4
tp2607
a(g6
S'STYLE'
p2608
tp2609
a(g9
S'REC'
p2610
tp2611
a(g12
S'REC_CATCH_EXCEPTION'
p2612
tp2613
a(g15
g16
tp2614
aa(lp2615
(g19
S'org.lobobrowser.request.RequestEngine$2'
p2616
tp2617
a(g15
g22
tp2618
aa(lp2619
(g19
S'org.lobobrowser.request.RequestEngine$2'
p2620
tp2621
a(g27
S'false'
p2622
tp2623
a(g30
S'run'
p2624
tp2625
a(g33
S'()Ljava/lang/Object;'
p2626
tp2627
a(g15
g36
tp2628
aa(lp2629
(g67
S'684'
p2630
tp2631
a(g69
S'485'
p2632
tp2633
a(g72
S'org/lobobrowser/request/RequestEngine.java'
p2634
tp2635
a(g75
S'RequestEngine.java'
p2636
tp2637
a(g19
S'org.lobobrowser.request.RequestEngine$2'
p2638
tp2639
a(g80
S'485'
p2640
tp2641
a(g83
S'684'
p2642
tp2643
a(g15
g85
tp2644
aaa(lp2645
(lp2646
(g3
g4
tp2647
a(g6
S'MT_CORRECTNESS'
p2648
tp2649
a(g9
S'STCAL'
p2650
tp2651
a(g12
S'STCAL_INVOKE_ON_STATIC_DATE_FORMAT_INSTANCE'
p2652
tp2653
a(g15
g16
tp2654
aa(lp2655
(g19
S'org.lobobrowser.request.RequestEngine$2'
p2656
tp2657
a(g15
g22
tp2658
aa(lp2659
(g19
S'org.lobobrowser.request.RequestEngine$2'
p2660
tp2661
a(g27
S'false'
p2662
tp2663
a(g30
S'run'
p2664
tp2665
a(g33
S'()Ljava/lang/Object;'
p2666
tp2667
a(g15
g36
tp2668
aa(lp2669
(g19
S'java.text.DateFormat'
p2670
tp2671
a(g27
S'false'
p2672
tp2673
a(g42
S'METHOD_CALLED'
p2674
tp2675
a(g30
S'format'
p2676
tp2677
a(g33
S'(Ljava/util/Date;)Ljava/lang/String;'
p2678
tp2679
a(g15
g36
tp2680
aa(lp2681
(g19
S'org.lobobrowser.util.Urls'
p2682
tp2683
a(g27
S'true'
p2684
tp2685
a(g30
S'PATTERN_RFC1123'
p2686
tp2687
a(g33
S'Ljava/text/DateFormat;'
p2688
tp2689
a(g15
g122
tp2690
aa(lp2691
(g67
S'376'
p2692
tp2693
a(g69
S'438'
p2694
tp2695
a(g72
S'org/lobobrowser/request/RequestEngine.java'
p2696
tp2697
a(g75
S'RequestEngine.java'
p2698
tp2699
a(g19
S'org.lobobrowser.request.RequestEngine$2'
p2700
tp2701
a(g80
S'438'
p2702
tp2703
a(g83
S'376'
p2704
tp2705
a(g15
g85
tp2706
aaa(lp2707
(lp2708
(g3
g4
tp2709
a(g6
S'PERFORMANCE'
p2710
tp2711
a(g9
S'SIC'
p2712
tp2713
a(g12
S'SIC_INNER_SHOULD_BE_STATIC'
p2714
tp2715
a(g15
g16
tp2716
aa(lp2717
(g19
S'org.lobobrowser.request.SimpleRequestHandler$LocalHostnameVerifier'
p2718
tp2719
a(g15
g22
tp2720
aaa(lp2721
(lp2722
(g3
g4
tp2723
a(g6
S'BAD_PRACTICE'
p2724
tp2725
a(g9
S'Eq'
p2726
tp2727
a(g12
S'EQ_COMPARETO_USE_OBJECT_EQUALS'
p2728
tp2729
a(g15
g16
tp2730
aa(lp2731
(g19
S'org.lobobrowser.store.CacheFileInfo'
p2732
tp2733
a(g15
g22
tp2734
aa(lp2735
(g19
S'org.lobobrowser.store.CacheFileInfo'
p2736
tp2737
a(g27
S'false'
p2738
tp2739
a(g30
S'compareTo'
p2740
tp2741
a(g33
S'(Ljava/lang/Object;)I'
p2742
tp2743
a(g15
g36
tp2744
aaa(lp2745
(lp2746
(g3
g4
tp2747
a(g6
S'BAD_PRACTICE'
p2748
tp2749
a(g9
S'RV'
p2750
tp2751
a(g12
S'RV_RETURN_VALUE_IGNORED_BAD_PRACTICE'
p2752
tp2753
a(g15
g16
tp2754
aa(lp2755
(g19
S'org.lobobrowser.store.CacheFileInfo'
p2756
tp2757
a(g15
g22
tp2758
aa(lp2759
(g19
S'org.lobobrowser.store.CacheFileInfo'
p2760
tp2761
a(g27
S'false'
p2762
tp2763
a(g30
S'delete'
p2764
tp2765
a(g33
S'()V'
p2766
tp2767
a(g15
g36
tp2768
aa(lp2769
(g19
S'java.io.File'
p2770
tp2771
a(g27
S'false'
p2772
tp2773
a(g42
S'METHOD_CALLED'
p2774
tp2775
a(g30
S'delete'
p2776
tp2777
a(g33
S'()Z'
p2778
tp2779
a(g15
g36
tp2780
aa(lp2781
(g67
S'11'
p2782
tp2783
a(g69
S'79'
p2784
tp2785
a(g72
S'org/lobobrowser/store/CacheFileInfo.java'
p2786
tp2787
a(g75
S'CacheFileInfo.java'
p2788
tp2789
a(g19
S'org.lobobrowser.store.CacheFileInfo'
p2790
tp2791
a(g80
S'79'
p2792
tp2793
a(g83
S'11'
p2794
tp2795
a(g15
g85
tp2796
aaa(lp2797
(lp2798
(g3
g4
tp2799
a(g6
S'MT_CORRECTNESS'
p2800
tp2801
a(g9
S'DC'
p2802
tp2803
a(g12
S'DC_DOUBLECHECK'
p2804
tp2805
a(g15
g16
tp2806
aa(lp2807
(g19
S'org.lobobrowser.store.CacheManager'
p2808
tp2809
a(g15
g22
tp2810
aa(lp2811
(g19
S'org.lobobrowser.store.CacheManager'
p2812
tp2813
a(g27
S'true'
p2814
tp2815
a(g30
S'getInstance'
p2816
tp2817
a(g33
S'()Lorg/lobobrowser/store/CacheManager;'
p2818
tp2819
a(g15
g36
tp2820
aa(lp2821
(g19
S'org.lobobrowser.store.CacheManager'
p2822
tp2823
a(g27
S'true'
p2824
tp2825
a(g42
S'FIELD_ON'
p2826
tp2827
a(g30
S'instance'
p2828
tp2829
a(g33
S'Lorg/lobobrowser/store/CacheManager;'
p2830
tp2831
a(g15
g122
tp2832
aa(lp2833
(g67
S'29'
p2834
tp2835
a(g69
S'68'
p2836
tp2837
a(g72
S'org/lobobrowser/store/CacheManager.java'
p2838
tp2839
a(g75
S'CacheManager.java'
p2840
tp2841
a(g19
S'org.lobobrowser.store.CacheManager'
p2842
tp2843
a(g80
S'66'
p2844
tp2845
a(g83
S'18'
p2846
tp2847
a(g15
g85
tp2848
aaa(lp2849
(lp2850
(g3
g4
tp2851
a(g6
S'BAD_PRACTICE'
p2852
tp2853
a(g9
S'RV'
p2854
tp2855
a(g12
S'RV_RETURN_VALUE_IGNORED_BAD_PRACTICE'
p2856
tp2857
a(g15
g16
tp2858
aa(lp2859
(g19
S'org.lobobrowser.store.CacheManager'
p2860
tp2861
a(g15
g22
tp2862
aa(lp2863
(g19
S'org.lobobrowser.store.CacheManager'
p2864
tp2865
a(g27
S'false'
p2866
tp2867
a(g30
S'checkCacheFile'
p2868
tp2869
a(g33
S'(Ljava/net/URL;Z)Z'
p2870
tp2871
a(g15
g36
tp2872
aa(lp2873
(g19
S'java.io.File'
p2874
tp2875
a(g27
S'false'
p2876
tp2877
a(g42
S'METHOD_CALLED'
p2878
tp2879
a(g30
S'setLastModified'
p2880
tp2881
a(g33
S'(J)Z'
p2882
tp2883
a(g15
g36
tp2884
aa(lp2885
(g67
S'25'
p2886
tp2887
a(g69
S'202'
p2888
tp2889
a(g72
S'org/lobobrowser/store/CacheManager.java'
p2890
tp2891
a(g75
S'CacheManager.java'
p2892
tp2893
a(g19
S'org.lobobrowser.store.CacheManager'
p2894
tp2895
a(g80
S'202'
p2896
tp2897
a(g83
S'25'
p2898
tp2899
a(g15
g85
tp2900
aaa(lp2901
(lp2902
(g3
g4
tp2903
a(g6
S'BAD_PRACTICE'
p2904
tp2905
a(g9
S'RV'
p2906
tp2907
a(g12
S'RV_RETURN_VALUE_IGNORED_BAD_PRACTICE'
p2908
tp2909
a(g15
g16
tp2910
aa(lp2911
(g19
S'org.lobobrowser.store.CacheManager'
p2912
tp2913
a(g15
g22
tp2914
aa(lp2915
(g19
S'org.lobobrowser.store.CacheManager'
p2916
tp2917
a(g27
S'false'
p2918
tp2919
a(g30
S'getJarFile'
p2920
tp2921
a(g33
S'(Ljava/net/URL;)Ljava/util/jar/JarFile;'
p2922
tp2923
a(g15
g36
tp2924
aa(lp2925
(g19
S'java.io.File'
p2926
tp2927
a(g27
S'false'
p2928
tp2929
a(g42
S'METHOD_CALLED'
p2930
tp2931
a(g30
S'setLastModified'
p2932
tp2933
a(g33
S'(J)Z'
p2934
tp2935
a(g15
g36
tp2936
aa(lp2937
(g67
S'75'
p2938
tp2939
a(g69
S'167'
p2940
tp2941
a(g72
S'org/lobobrowser/store/CacheManager.java'
p2942
tp2943
a(g75
S'CacheManager.java'
p2944
tp2945
a(g19
S'org.lobobrowser.store.CacheManager'
p2946
tp2947
a(g80
S'167'
p2948
tp2949
a(g83
S'75'
p2950
tp2951
a(g15
g85
tp2952
aaa(lp2953
(lp2954
(g3
g4
tp2955
a(g6
S'BAD_PRACTICE'
p2956
tp2957
a(g9
S'RV'
p2958
tp2959
a(g12
S'RV_RETURN_VALUE_IGNORED_BAD_PRACTICE'
p2960
tp2961
a(g15
g16
tp2962
aa(lp2963
(g19
S'org.lobobrowser.store.CacheManager'
p2964
tp2965
a(g15
g22
tp2966
aa(lp2967
(g19
S'org.lobobrowser.store.CacheManager'
p2968
tp2969
a(g27
S'false'
p2970
tp2971
a(g30
S'populateCacheStoreInfo'
p2972
tp2973
a(g33
S'(Lorg/lobobrowser/store/CacheStoreInfo;Ljava/io/File;)V'
p2974
tp2975
a(g15
g36
tp2976
aa(lp2977
(g19
S'java.io.File'
p2978
tp2979
a(g27
S'false'
p2980
tp2981
a(g42
S'METHOD_CALLED'
p2982
tp2983
a(g30
S'delete'
p2984
tp2985
a(g33
S'()Z'
p2986
tp2987
a(g15
g36
tp2988
aa(lp2989
(g67
S'11'
p2990
tp2991
a(g69
S'284'
p2992
tp2993
a(g72
S'org/lobobrowser/store/CacheManager.java'
p2994
tp2995
a(g75
S'CacheManager.java'
p2996
tp2997
a(g19
S'org.lobobrowser.store.CacheManager'
p2998
tp2999
a(g80
S'284'
p3000
tp3001
a(g83
S'11'
p3002
tp3003
a(g15
g85
tp3004
aaa(lp3005
(lp3006
(g3
g4
tp3007
a(g6
S'BAD_PRACTICE'
p3008
tp3009
a(g9
S'RV'
p3010
tp3011
a(g12
S'RV_RETURN_VALUE_IGNORED_BAD_PRACTICE'
p3012
tp3013
a(g15
g16
tp3014
aa(lp3015
(g19
S'org.lobobrowser.store.CacheManager'
p3016
tp3017
a(g15
g22
tp3018
aa(lp3019
(g19
S'org.lobobrowser.store.CacheManager'
p3020
tp3021
a(g27
S'false'
p3022
tp3023
a(g30
S'putPersistent'
p3024
tp3025
a(g33
S'(Ljava/net/URL;[BZ)V'
p3026
tp3027
a(g15
g36
tp3028
aa(lp3029
(g19
S'java.io.File'
p3030
tp3031
a(g27
S'false'
p3032
tp3033
a(g42
S'METHOD_CALLED'
p3034
tp3035
a(g30
S'mkdirs'
p3036
tp3037
a(g33
S'()Z'
p3038
tp3039
a(g15
g36
tp3040
aa(lp3041
(g67
S'38'
p3042
tp3043
a(g69
S'126'
p3044
tp3045
a(g72
S'org/lobobrowser/store/CacheManager.java'
p3046
tp3047
a(g75
S'CacheManager.java'
p3048
tp3049
a(g19
S'org.lobobrowser.store.CacheManager'
p3050
tp3051
a(g80
S'126'
p3052
tp3053
a(g83
S'38'
p3054
tp3055
a(g15
g85
tp3056
aaa(lp3057
(lp3058
(g3
g4
tp3059
a(g6
S'MT_CORRECTNESS'
p3060
tp3061
a(g9
S'SWL'
p3062
tp3063
a(g12
S'SWL_SLEEP_WITH_LOCK_HELD'
p3064
tp3065
a(g15
g16
tp3066
aa(lp3067
(g19
S'org.lobobrowser.store.CacheManager'
p3068
tp3069
a(g15
g22
tp3070
aa(lp3071
(g19
S'org.lobobrowser.store.CacheManager'
p3072
tp3073
a(g27
S'false'
p3074
tp3075
a(g30
S'sweepCache'
p3076
tp3077
a(g33
S'()V'
p3078
tp3079
a(g15
g36
tp3080
aa(lp3081
(g67
S'156'
p3082
tp3083
a(g69
S'254'
p3084
tp3085
a(g72
S'org/lobobrowser/store/CacheManager.java'
p3086
tp3087
a(g75
S'CacheManager.java'
p3088
tp3089
a(g19
S'org.lobobrowser.store.CacheManager'
p3090
tp3091
a(g80
S'254'
p3092
tp3093
a(g83
S'156'
p3094
tp3095
a(g15
g85
tp3096
aaa(lp3097
(lp3098
(g3
g4
tp3099
a(g6
S'BAD_PRACTICE'
p3100
tp3101
a(g9
S'OS'
p3102
tp3103
a(g12
S'OS_OPEN_STREAM'
p3104
tp3105
a(g15
g16
tp3106
aa(lp3107
(g19
S'org.lobobrowser.store.RestrictedStore'
p3108
tp3109
a(g15
g22
tp3110
aa(lp3111
(g19
S'org.lobobrowser.store.RestrictedStore'
p3112
tp3113
a(g27
S'false'
p3114
tp3115
a(g30
S'getSizeFromFile'
p3116
tp3117
a(g33
S'()J'
p3118
tp3119
a(g15
g36
tp3120
aa(lp3121
(g39
S'Ljava/io/InputStream;'
p3122
tp3123
a(g42
S'TYPE_CLOSEIT'
p3124
tp3125
a(g15
g45
tp3126
aa(lp3127
(g67
S'23'
p3128
tp3129
a(g69
S'139'
p3130
tp3131
a(g72
S'org/lobobrowser/store/RestrictedStore.java'
p3132
tp3133
a(g75
S'RestrictedStore.java'
p3134
tp3135
a(g19
S'org.lobobrowser.store.RestrictedStore'
p3136
tp3137
a(g80
S'139'
p3138
tp3139
a(g83
S'23'
p3140
tp3141
a(g15
g85
tp3142
aaa(lp3143
(lp3144
(g3
g4
tp3145
a(g6
S'BAD_PRACTICE'
p3146
tp3147
a(g9
S'OS'
p3148
tp3149
a(g12
S'OS_OPEN_STREAM'
p3150
tp3151
a(g15
g16
tp3152
aa(lp3153
(g19
S'org.lobobrowser.store.RestrictedStore'
p3154
tp3155
a(g15
g22
tp3156
aa(lp3157
(g19
S'org.lobobrowser.store.RestrictedStore'
p3158
tp3159
a(g27
S'false'
p3160
tp3161
a(g30
S'retrieveObject'
p3162
tp3163
a(g33
S'(Ljava/lang/String;Ljava/lang/ClassLoader;)Ljava/lang/Object;'
p3164
tp3165
a(g15
g36
tp3166
aa(lp3167
(g39
S'Ljava/io/InputStream;'
p3168
tp3169
a(g42
S'TYPE_CLOSEIT'
p3170
tp3171
a(g15
g45
tp3172
aa(lp3173
(g67
S'14'
p3174
tp3175
a(g69
S'370'
p3176
tp3177
a(g72
S'org/lobobrowser/store/RestrictedStore.java'
p3178
tp3179
a(g75
S'RestrictedStore.java'
p3180
tp3181
a(g19
S'org.lobobrowser.store.RestrictedStore'
p3182
tp3183
a(g80
S'370'
p3184
tp3185
a(g83
S'14'
p3186
tp3187
a(g15
g85
tp3188
aaa(lp3189
(lp3190
(g3
g4
tp3191
a(g6
S'BAD_PRACTICE'
p3192
tp3193
a(g9
S'OS'
p3194
tp3195
a(g12
S'OS_OPEN_STREAM'
p3196
tp3197
a(g15
g16
tp3198
aa(lp3199
(g19
S'org.lobobrowser.store.RestrictedStore'
p3200
tp3201
a(g15
g22
tp3202
aa(lp3203
(g19
S'org.lobobrowser.store.RestrictedStore'
p3204
tp3205
a(g27
S'false'
p3206
tp3207
a(g30
S'saveObject'
p3208
tp3209
a(g33
S'(Ljava/lang/String;Ljava/io/Serializable;)V'
p3210
tp3211
a(g15
g36
tp3212
aa(lp3213
(g39
S'Ljava/io/OutputStream;'
p3214
tp3215
a(g42
S'TYPE_CLOSEIT'
p3216
tp3217
a(g15
g45
tp3218
aa(lp3219
(g67
S'14'
p3220
tp3221
a(g69
S'348'
p3222
tp3223
a(g72
S'org/lobobrowser/store/RestrictedStore.java'
p3224
tp3225
a(g75
S'RestrictedStore.java'
p3226
tp3227
a(g19
S'org.lobobrowser.store.RestrictedStore'
p3228
tp3229
a(g80
S'348'
p3230
tp3231
a(g83
S'14'
p3232
tp3233
a(g15
g85
tp3234
aaa(lp3235
(lp3236
(g3
g4
tp3237
a(g6
S'BAD_PRACTICE'
p3238
tp3239
a(g9
S'OS'
p3240
tp3241
a(g12
S'OS_OPEN_STREAM'
p3242
tp3243
a(g15
g16
tp3244
aa(lp3245
(g19
S'org.lobobrowser.store.RestrictedStore'
p3246
tp3247
a(g15
g22
tp3248
aa(lp3249
(g19
S'org.lobobrowser.store.RestrictedStore'
p3250
tp3251
a(g27
S'false'
p3252
tp3253
a(g30
S'updateSizeFileImpl'
p3254
tp3255
a(g33
S'(J)V'
p3256
tp3257
a(g15
g36
tp3258
aa(lp3259
(g39
S'Ljava/io/OutputStream;'
p3260
tp3261
a(g42
S'TYPE_CLOSEIT'
p3262
tp3263
a(g15
g45
tp3264
aa(lp3265
(g67
S'35'
p3266
tp3267
a(g69
S'99'
p3268
tp3269
a(g72
S'org/lobobrowser/store/RestrictedStore.java'
p3270
tp3271
a(g75
S'RestrictedStore.java'
p3272
tp3273
a(g19
S'org.lobobrowser.store.RestrictedStore'
p3274
tp3275
a(g80
S'99'
p3276
tp3277
a(g83
S'35'
p3278
tp3279
a(g15
g85
tp3280
aaa(lp3281
(lp3282
(g3
g4
tp3283
a(g6
S'BAD_PRACTICE'
p3284
tp3285
a(g9
S'RV'
p3286
tp3287
a(g12
S'RV_RETURN_VALUE_IGNORED_BAD_PRACTICE'
p3288
tp3289
a(g15
g16
tp3290
aa(lp3291
(g19
S'org.lobobrowser.store.RestrictedStore'
p3292
tp3293
a(g15
g22
tp3294
aa(lp3295
(g19
S'org.lobobrowser.store.RestrictedStore'
p3296
tp3297
a(g27
S'false'
p3298
tp3299
a(g30
S'<init>'
p3300
tp3301
a(g33
S'(Ljava/io/File;J)V'
p3302
tp3303
a(g15
g36
tp3304
aa(lp3305
(g19
S'java.io.File'
p3306
tp3307
a(g27
S'false'
p3308
tp3309
a(g42
S'METHOD_CALLED'
p3310
tp3311
a(g30
S'mkdirs'
p3312
tp3313
a(g33
S'()Z'
p3314
tp3315
a(g15
g36
tp3316
aa(lp3317
(g67
S'67'
p3318
tp3319
a(g69
S'67'
p3320
tp3321
a(g72
S'org/lobobrowser/store/RestrictedStore.java'
p3322
tp3323
a(g75
S'RestrictedStore.java'
p3324
tp3325
a(g19
S'org.lobobrowser.store.RestrictedStore'
p3326
tp3327
a(g80
S'67'
p3328
tp3329
a(g83
S'67'
p3330
tp3331
a(g15
g85
tp3332
aaa(lp3333
(lp3334
(g3
g4
tp3335
a(g6
S'BAD_PRACTICE'
p3336
tp3337
a(g9
S'RV'
p3338
tp3339
a(g12
S'RV_RETURN_VALUE_IGNORED_BAD_PRACTICE'
p3340
tp3341
a(g15
g16
tp3342
aa(lp3343
(g19
S'org.lobobrowser.store.RestrictedStore$3'
p3344
tp3345
a(g15
g22
tp3346
aa(lp3347
(g19
S'org.lobobrowser.store.RestrictedStore$3'
p3348
tp3349
a(g27
S'false'
p3350
tp3351
a(g30
S'run'
p3352
tp3353
a(g33
S'()Ljava/io/OutputStream;'
p3354
tp3355
a(g15
g36
tp3356
aa(lp3357
(g19
S'java.io.File'
p3358
tp3359
a(g27
S'false'
p3360
tp3361
a(g42
S'METHOD_CALLED'
p3362
tp3363
a(g30
S'mkdirs'
p3364
tp3365
a(g33
S'()Z'
p3366
tp3367
a(g15
g36
tp3368
aa(lp3369
(g67
S'65'
p3370
tp3371
a(g69
S'256'
p3372
tp3373
a(g72
S'org/lobobrowser/store/RestrictedStore.java'
p3374
tp3375
a(g75
S'RestrictedStore.java'
p3376
tp3377
a(g19
S'org.lobobrowser.store.RestrictedStore$3'
p3378
tp3379
a(g80
S'256'
p3380
tp3381
a(g83
S'65'
p3382
tp3383
a(g15
g85
tp3384
aaa(lp3385
(lp3386
(g3
g4
tp3387
a(g6
S'MT_CORRECTNESS'
p3388
tp3389
a(g9
S'DC'
p3390
tp3391
a(g12
S'DC_DOUBLECHECK'
p3392
tp3393
a(g15
g16
tp3394
aa(lp3395
(g19
S'org.lobobrowser.store.StorageManager'
p3396
tp3397
a(g15
g22
tp3398
aa(lp3399
(g19
S'org.lobobrowser.store.StorageManager'
p3400
tp3401
a(g27
S'false'
p3402
tp3403
a(g30
S'ensureThreadStarted'
p3404
tp3405
a(g33
S'()V'
p3406
tp3407
a(g15
g36
tp3408
aa(lp3409
(g19
S'org.lobobrowser.store.StorageManager'
p3410
tp3411
a(g27
S'false'
p3412
tp3413
a(g42
S'FIELD_ON'
p3414
tp3415
a(g30
S'threadStarted'
p3416
tp3417
a(g33
g1668
tp3418
a(g15
g122
tp3419
aa(lp3420
(g67
S'15'
p3421
tp3422
a(g69
S'67'
p3423
tp3424
a(g72
S'org/lobobrowser/store/StorageManager.java'
p3425
tp3426
a(g75
S'StorageManager.java'
p3427
tp3428
a(g19
S'org.lobobrowser.store.StorageManager'
p3429
tp3430
a(g80
S'65'
p3431
tp3432
a(g83
g177
tp3433
a(g15
g85
tp3434
aaa(lp3435
(lp3436
(g3
g4
tp3437
a(g6
S'MT_CORRECTNESS'
p3438
tp3439
a(g9
S'IS'
p3440
tp3441
a(g12
S'IS2_INCONSISTENT_SYNC'
p3442
tp3443
a(g15
g16
tp3444
aa(lp3445
(g19
S'org.lobobrowser.store.StorageManager'
p3446
tp3447
a(g15
g22
tp3448
aa(lp3449
(g19
S'org.lobobrowser.store.StorageManager'
p3450
tp3451
a(g27
S'false'
p3452
tp3453
a(g30
S'threadStarted'
p3454
tp3455
a(g33
g1668
tp3456
a(g15
g122
tp3457
aa(lp3458
(g42
S'INT_SYNC_PERCENT'
p3459
tp3460
a(g685
S'66'
p3461
tp3462
a(g15
g1127
tp3463
aa(lp3464
(g67
g58
tp3465
a(g69
S'65'
p3466
tp3467
a(g72
S'org/lobobrowser/store/StorageManager.java'
p3468
tp3469
a(g75
S'StorageManager.java'
p3470
tp3471
a(g19
S'org.lobobrowser.store.StorageManager'
p3472
tp3473
a(g80
S'65'
p3474
tp3475
a(g83
g58
tp3476
a(g42
S'SOURCE_LINE_UNSYNC_ACCESS'
p3477
tp3478
a(g15
g85
tp3479
aa(lp3480
(g67
S'12'
p3481
tp3482
a(g69
S'67'
p3483
tp3484
a(g72
S'org/lobobrowser/store/StorageManager.java'
p3485
tp3486
a(g75
S'StorageManager.java'
p3487
tp3488
a(g19
S'org.lobobrowser.store.StorageManager'
p3489
tp3490
a(g80
S'67'
p3491
tp3492
a(g83
S'12'
p3493
tp3494
a(g42
S'SOURCE_LINE_SYNC_ACCESS'
p3495
tp3496
a(g15
g85
tp3497
aa(lp3498
(g67
S'45'
p3499
tp3500
a(g69
S'72'
p3501
tp3502
a(g72
S'org/lobobrowser/store/StorageManager.java'
p3503
tp3504
a(g75
S'StorageManager.java'
p3505
tp3506
a(g19
S'org.lobobrowser.store.StorageManager'
p3507
tp3508
a(g80
S'72'
p3509
tp3510
a(g83
S'45'
p3511
tp3512
a(g42
S'SOURCE_LINE_SYNC_ACCESS'
p3513
tp3514
a(g15
g85
tp3515
aaa(lp3516
(lp3517
(g3
g4
tp3518
a(g6
S'BAD_PRACTICE'
p3519
tp3520
a(g9
S'OS'
p3521
tp3522
a(g12
S'OS_OPEN_STREAM'
p3523
tp3524
a(g15
g16
tp3525
aa(lp3526
(g19
S'org.lobobrowser.store.StorageManager'
p3527
tp3528
a(g15
g22
tp3529
aa(lp3530
(g19
S'org.lobobrowser.store.StorageManager'
p3531
tp3532
a(g27
S'false'
p3533
tp3534
a(g30
S'retrieveSettings'
p3535
tp3536
a(g33
S'(Ljava/lang/String;Ljava/lang/ClassLoader;)Ljava/io/Serializable;'
p3537
tp3538
a(g15
g36
tp3539
aa(lp3540
(g39
S'Ljava/io/InputStream;'
p3541
tp3542
a(g42
S'TYPE_CLOSEIT'
p3543
tp3544
a(g15
g45
tp3545
aa(lp3546
(g67
S'57'
p3547
tp3548
a(g69
S'178'
p3549
tp3550
a(g72
S'org/lobobrowser/store/StorageManager.java'
p3551
tp3552
a(g75
S'StorageManager.java'
p3553
tp3554
a(g19
S'org.lobobrowser.store.StorageManager'
p3555
tp3556
a(g80
S'178'
p3557
tp3558
a(g83
S'57'
p3559
tp3560
a(g15
g85
tp3561
aaa(lp3562
(lp3563
(g3
g4
tp3564
a(g6
S'BAD_PRACTICE'
p3565
tp3566
a(g9
S'OS'
p3567
tp3568
a(g12
S'OS_OPEN_STREAM'
p3569
tp3570
a(g15
g16
tp3571
aa(lp3572
(g19
S'org.lobobrowser.store.StorageManager'
p3573
tp3574
a(g15
g22
tp3575
aa(lp3576
(g19
S'org.lobobrowser.store.StorageManager'
p3577
tp3578
a(g27
S'false'
p3579
tp3580
a(g30
S'saveSettings'
p3581
tp3582
a(g33
S'(Ljava/lang/String;Ljava/io/Serializable;)V'
p3583
tp3584
a(g15
g36
tp3585
aa(lp3586
(g39
S'Ljava/io/OutputStream;'
p3587
tp3588
a(g42
S'TYPE_CLOSEIT'
p3589
tp3590
a(g15
g45
tp3591
aa(lp3592
(g67
S'50'
p3593
tp3594
a(g69
S'158'
p3595
tp3596
a(g72
S'org/lobobrowser/store/StorageManager.java'
p3597
tp3598
a(g75
S'StorageManager.java'
p3599
tp3600
a(g19
S'org.lobobrowser.store.StorageManager'
p3601
tp3602
a(g80
S'158'
p3603
tp3604
a(g83
S'50'
p3605
tp3606
a(g15
g85
tp3607
aaa(lp3608
(lp3609
(g3
g4
tp3610
a(g6
S'BAD_PRACTICE'
p3611
tp3612
a(g9
S'RV'
p3613
tp3614
a(g12
S'RV_RETURN_VALUE_IGNORED_BAD_PRACTICE'
p3615
tp3616
a(g15
g16
tp3617
aa(lp3618
(g19
S'org.lobobrowser.store.StorageManager'
p3619
tp3620
a(g15
g22
tp3621
aa(lp3622
(g19
S'org.lobobrowser.store.StorageManager'
p3623
tp3624
a(g27
S'false'
p3625
tp3626
a(g30
S'<init>'
p3627
tp3628
a(g33
S'()V'
p3629
tp3630
a(g15
g36
tp3631
aa(lp3632
(g19
S'java.io.File'
p3633
tp3634
a(g27
S'false'
p3635
tp3636
a(g42
S'METHOD_CALLED'
p3637
tp3638
a(g30
S'mkdirs'
p3639
tp3640
a(g33
S'()Z'
p3641
tp3642
a(g15
g36
tp3643
aa(lp3644
(g67
S'41'
p3645
tp3646
a(g69
S'58'
p3647
tp3648
a(g72
S'org/lobobrowser/store/StorageManager.java'
p3649
tp3650
a(g75
S'StorageManager.java'
p3651
tp3652
a(g19
S'org.lobobrowser.store.StorageManager'
p3653
tp3654
a(g80
S'58'
p3655
tp3656
a(g83
S'41'
p3657
tp3658
a(g15
g85
tp3659
aaa(lp3660
(lp3661
(g3
g4
tp3662
a(g6
S'BAD_PRACTICE'
p3663
tp3664
a(g9
S'RV'
p3665
tp3666
a(g12
S'RV_RETURN_VALUE_IGNORED_BAD_PRACTICE'
p3667
tp3668
a(g15
g16
tp3669
aa(lp3670
(g19
S'org.lobobrowser.store.StorageManager'
p3671
tp3672
a(g15
g22
tp3673
aa(lp3674
(g19
S'org.lobobrowser.store.StorageManager'
p3675
tp3676
a(g27
S'false'
p3677
tp3678
a(g30
S'saveSettings'
p3679
tp3680
a(g33
S'(Ljava/lang/String;Ljava/io/Serializable;)V'
p3681
tp3682
a(g15
g36
tp3683
aa(lp3684
(g19
S'java.io.File'
p3685
tp3686
a(g27
S'false'
p3687
tp3688
a(g42
S'METHOD_CALLED'
p3689
tp3690
a(g30
S'mkdirs'
p3691
tp3692
a(g33
S'()Z'
p3693
tp3694
a(g15
g36
tp3695
aa(lp3696
(g67
S'13'
p3697
tp3698
a(g69
S'152'
p3699
tp3700
a(g72
S'org/lobobrowser/store/StorageManager.java'
p3701
tp3702
a(g75
S'StorageManager.java'
p3703
tp3704
a(g19
S'org.lobobrowser.store.StorageManager'
p3705
tp3706
a(g80
S'152'
p3707
tp3708
a(g83
S'13'
p3709
tp3710
a(g15
g85
tp3711
aaa(lp3712
(lp3713
(g3
g4
tp3714
a(g6
S'MT_CORRECTNESS'
p3715
tp3716
a(g9
S'DC'
p3717
tp3718
a(g12
S'DC_DOUBLECHECK'
p3719
tp3720
a(g15
g16
tp3721
aa(lp3722
(g19
S'org.lobobrowser.store.TempFileManager'
p3723
tp3724
a(g15
g22
tp3725
aa(lp3726
(g19
S'org.lobobrowser.store.TempFileManager'
p3727
tp3728
a(g27
S'true'
p3729
tp3730
a(g30
S'getInstance'
p3731
tp3732
a(g33
S'()Lorg/lobobrowser/store/TempFileManager;'
p3733
tp3734
a(g15
g36
tp3735
aa(lp3736
(g19
S'org.lobobrowser.store.TempFileManager'
p3737
tp3738
a(g27
S'true'
p3739
tp3740
a(g42
S'FIELD_ON'
p3741
tp3742
a(g30
S'instance'
p3743
tp3744
a(g33
S'Lorg/lobobrowser/store/TempFileManager;'
p3745
tp3746
a(g15
g122
tp3747
aa(lp3748
(g67
S'14'
p3749
tp3750
a(g69
S'48'
p3751
tp3752
a(g72
S'org/lobobrowser/store/TempFileManager.java'
p3753
tp3754
a(g75
S'TempFileManager.java'
p3755
tp3756
a(g19
S'org.lobobrowser.store.TempFileManager'
p3757
tp3758
a(g80
S'46'
p3759
tp3760
a(g83
g137
tp3761
a(g15
g85
tp3762
aaa(lp3763
(lp3764
(g3
g4
tp3765
a(g6
S'BAD_PRACTICE'
p3766
tp3767
a(g9
S'RV'
p3768
tp3769
a(g12
S'RV_RETURN_VALUE_IGNORED_BAD_PRACTICE'
p3770
tp3771
a(g15
g16
tp3772
aa(lp3773
(g19
S'org.lobobrowser.store.TempFileManager'
p3774
tp3775
a(g15
g22
tp3776
aa(lp3777
(g19
S'org.lobobrowser.store.TempFileManager'
p3778
tp3779
a(g27
S'false'
p3780
tp3781
a(g30
S'<init>'
p3782
tp3783
a(g33
S'()V'
p3784
tp3785
a(g15
g36
tp3786
aa(lp3787
(g19
S'java.io.File'
p3788
tp3789
a(g27
S'false'
p3790
tp3791
a(g42
S'METHOD_CALLED'
p3792
tp3793
a(g30
S'delete'
p3794
tp3795
a(g33
S'()Z'
p3796
tp3797
a(g15
g36
tp3798
aa(lp3799
(g67
S'139'
p3800
tp3801
a(g69
S'72'
p3802
tp3803
a(g72
S'org/lobobrowser/store/TempFileManager.java'
p3804
tp3805
a(g75
S'TempFileManager.java'
p3806
tp3807
a(g19
S'org.lobobrowser.store.TempFileManager'
p3808
tp3809
a(g80
S'72'
p3810
tp3811
a(g83
S'139'
p3812
tp3813
a(g15
g85
tp3814
aaa(lp3815
(lp3816
(g3
g4
tp3817
a(g6
S'BAD_PRACTICE'
p3818
tp3819
a(g9
S'RV'
p3820
tp3821
a(g12
S'RV_RETURN_VALUE_IGNORED_BAD_PRACTICE'
p3822
tp3823
a(g15
g16
tp3824
aa(lp3825
(g19
S'org.lobobrowser.store.TempFileManager'
p3826
tp3827
a(g15
g22
tp3828
aa(lp3829
(g19
S'org.lobobrowser.store.TempFileManager'
p3830
tp3831
a(g27
S'false'
p3832
tp3833
a(g30
S'<init>'
p3834
tp3835
a(g33
S'()V'
p3836
tp3837
a(g15
g36
tp3838
aa(lp3839
(g19
S'java.io.File'
p3840
tp3841
a(g27
S'false'
p3842
tp3843
a(g42
S'METHOD_CALLED'
p3844
tp3845
a(g30
S'mkdirs'
p3846
tp3847
a(g33
S'()Z'
p3848
tp3849
a(g15
g36
tp3850
aa(lp3851
(g67
S'72'
p3852
tp3853
a(g69
S'61'
p3854
tp3855
a(g72
S'org/lobobrowser/store/TempFileManager.java'
p3856
tp3857
a(g75
S'TempFileManager.java'
p3858
tp3859
a(g19
S'org.lobobrowser.store.TempFileManager'
p3860
tp3861
a(g80
S'61'
p3862
tp3863
a(g83
S'72'
p3864
tp3865
a(g15
g85
tp3866
aaa(lp3867
(lp3868
(g3
g4
tp3869
a(g6
S'BAD_PRACTICE'
p3870
tp3871
a(g9
S'RV'
p3872
tp3873
a(g12
S'RV_RETURN_VALUE_IGNORED_BAD_PRACTICE'
p3874
tp3875
a(g15
g16
tp3876
aa(lp3877
(g19
S'org.lobobrowser.store.TempFileManager'
p3878
tp3879
a(g15
g22
tp3880
aa(lp3881
(g19
S'org.lobobrowser.store.TempFileManager'
p3882
tp3883
a(g27
S'false'
p3884
tp3885
a(g30
S'createJarFile'
p3886
tp3887
a(g33
S'([B)Ljava/util/jar/JarFile;'
p3888
tp3889
a(g15
g36
tp3890
aa(lp3891
(g19
S'java.io.File'
p3892
tp3893
a(g27
S'false'
p3894
tp3895
a(g42
S'METHOD_CALLED'
p3896
tp3897
a(g30
S'delete'
p3898
tp3899
a(g33
S'()Z'
p3900
tp3901
a(g15
g36
tp3902
aa(lp3903
(g67
S'31'
p3904
tp3905
a(g69
S'114'
p3906
tp3907
a(g72
S'org/lobobrowser/store/TempFileManager.java'
p3908
tp3909
a(g75
S'TempFileManager.java'
p3910
tp3911
a(g19
S'org.lobobrowser.store.TempFileManager'
p3912
tp3913
a(g80
S'114'
p3914
tp3915
a(g83
S'31'
p3916
tp3917
a(g15
g85
tp3918
aaa(lp3919
(lp3920
(g3
g4
tp3921
a(g6
S'BAD_PRACTICE'
p3922
tp3923
a(g9
S'RV'
p3924
tp3925
a(g12
S'RV_RETURN_VALUE_IGNORED_BAD_PRACTICE'
p3926
tp3927
a(g15
g16
tp3928
aa(lp3929
(g19
S'org.lobobrowser.store.TempFileManager'
p3930
tp3931
a(g15
g22
tp3932
aa(lp3933
(g19
S'org.lobobrowser.store.TempFileManager'
p3934
tp3935
a(g27
S'false'
p3936
tp3937
a(g30
S'shutdownCleanup'
p3938
tp3939
a(g33
S'()V'
p3940
tp3941
a(g15
g36
tp3942
aa(lp3943
(g19
S'java.io.File'
p3944
tp3945
a(g27
S'false'
p3946
tp3947
a(g42
S'METHOD_CALLED'
p3948
tp3949
a(g30
S'delete'
p3950
tp3951
a(g33
S'()Z'
p3952
tp3953
a(g15
g36
tp3954
aa(lp3955
(g67
S'96'
p3956
tp3957
a(g69
S'97'
p3958
tp3959
a(g72
S'org/lobobrowser/store/TempFileManager.java'
p3960
tp3961
a(g75
S'TempFileManager.java'
p3962
tp3963
a(g19
S'org.lobobrowser.store.TempFileManager'
p3964
tp3965
a(g80
S'97'
p3966
tp3967
a(g83
S'96'
p3968
tp3969
a(g15
g85
tp3970
aaa(lp3971
(lp3972
(g3
g4
tp3973
a(g6
S'BAD_PRACTICE'
p3974
tp3975
a(g9
S'It'
p3976
tp3977
a(g12
S'IT_NO_SUCH_ELEMENT'
p3978
tp3979
a(g15
g16
tp3980
aa(lp3981
(g19
S'org.lobobrowser.util.ArrayUtilities$ArrayIterator'
p3982
tp3983
a(g15
g22
tp3984
aa(lp3985
(g19
S'org.lobobrowser.util.ArrayUtilities$ArrayIterator'
p3986
tp3987
a(g27
S'false'
p3988
tp3989
a(g30
S'next'
p3990
tp3991
a(g33
S'()Ljava/lang/Object;'
p3992
tp3993
a(g15
g36
tp3994
aaa(lp3995
(lp3996
(g3
g4
tp3997
a(g6
S'BAD_PRACTICE'
p3998
tp3999
a(g9
S'Nm'
p4000
tp4001
a(g12
S'NM_METHOD_NAMING_CONVENTION'
p4002
tp4003
a(g15
g16
tp4004
aa(lp4005
(g19
S'org.lobobrowser.util.Diagnostics'
p4006
tp4007
a(g15
g22
tp4008
aa(lp4009
(g19
S'org.lobobrowser.util.Diagnostics'
p4010
tp4011
a(g27
S'true'
p4012
tp4013
a(g30
S'Assert'
p4014
tp4015
a(g33
S'(ZLjava/lang/String;)V'
p4016
tp4017
a(g15
g36
tp4018
aaa(lp4019
(lp4020
(g3
g4
tp4021
a(g6
S'STYLE'
p4022
tp4023
a(g9
S'BC'
p4024
tp4025
a(g12
S'BC_UNCONFIRMED_CAST'
p4026
tp4027
a(g15
g16
tp4028
aa(lp4029
(g19
S'org.lobobrowser.util.GenericPropertyChangeListener'
p4030
tp4031
a(g15
g22
tp4032
aa(lp4033
(g19
S'org.lobobrowser.util.GenericPropertyChangeListener'
p4034
tp4035
a(g27
S'false'
p4036
tp4037
a(g30
S'processEvent'
p4038
tp4039
a(g33
S'(Ljava/util/EventObject;)V'
p4040
tp4041
a(g15
g36
tp4042
aa(lp4043
(g39
S'Ljava/util/EventObject;'
p4044
tp4045
a(g42
S'TYPE_FOUND'
p4046
tp4047
a(g15
g45
tp4048
aa(lp4049
(g39
S'Ljava/beans/PropertyChangeEvent;'
p4050
tp4051
a(g42
S'TYPE_EXPECTED'
p4052
tp4053
a(g15
g45
tp4054
aa(lp4055
(g54
g177
tp4056
a(g57
g58
tp4057
a(g42
S'LOCAL_VARIABLE_VALUE_OF'
p4058
tp4059
a(g30
S'event'
p4060
tp4061
a(g15
g64
tp4062
aa(lp4063
(g67
g186
tp4064
a(g69
S'42'
p4065
tp4066
a(g72
S'org/lobobrowser/util/GenericPropertyChangeListener.java'
p4067
tp4068
a(g75
S'GenericPropertyChangeListener.java'
p4069
tp4070
a(g19
S'org.lobobrowser.util.GenericPropertyChangeListener'
p4071
tp4072
a(g80
S'42'
p4073
tp4074
a(g83
g186
tp4075
a(g15
g85
tp4076
aaa(lp4077
(lp4078
(g3
g4
tp4079
a(g6
S'BAD_PRACTICE'
p4080
tp4081
a(g9
S'BC'
p4082
tp4083
a(g12
S'BC_EQUALS_METHOD_SHOULD_WORK_FOR_ALL_OBJECTS'
p4084
tp4085
a(g15
g16
tp4086
aa(lp4087
(g19
S'org.lobobrowser.util.History$TimedEntry'
p4088
tp4089
a(g15
g22
tp4090
aa(lp4091
(g19
S'org.lobobrowser.util.History$TimedEntry'
p4092
tp4093
a(g27
S'false'
p4094
tp4095
a(g30
S'equals'
p4096
tp4097
a(g33
S'(Ljava/lang/Object;)Z'
p4098
tp4099
a(g15
g36
tp4100
aa(lp4101
(g67
g58
tp4102
a(g69
S'210'
p4103
tp4104
a(g72
S'org/lobobrowser/util/History.java'
p4105
tp4106
a(g75
S'History.java'
p4107
tp4108
a(g19
S'org.lobobrowser.util.History$TimedEntry'
p4109
tp4110
a(g80
S'210'
p4111
tp4112
a(g83
g58
tp4113
a(g15
g85
tp4114
aaa(lp4115
(lp4116
(g3
g4
tp4117
a(g6
S'BAD_PRACTICE'
p4118
tp4119
a(g9
S'HE'
p4120
tp4121
a(g12
S'HE_EQUALS_USE_HASHCODE'
p4122
tp4123
a(g15
g16
tp4124
aa(lp4125
(g19
S'org.lobobrowser.util.History$TimedEntry'
p4126
tp4127
a(g15
g22
tp4128
aa(lp4129
(g19
S'org.lobobrowser.util.History$TimedEntry'
p4130
tp4131
a(g27
S'false'
p4132
tp4133
a(g30
S'equals'
p4134
tp4135
a(g33
S'(Ljava/lang/Object;)Z'
p4136
tp4137
a(g15
g36
tp4138
aaa(lp4139
(lp4140
(g3
g4
tp4141
a(g6
S'BAD_PRACTICE'
p4142
tp4143
a(g9
S'NP'
p4144
tp4145
a(g12
S'NP_EQUALS_SHOULD_HANDLE_NULL_ARGUMENT'
p4146
tp4147
a(g15
g16
tp4148
aa(lp4149
(g19
S'org.lobobrowser.util.History$TimedEntry'
p4150
tp4151
a(g15
g22
tp4152
aa(lp4153
(g19
S'org.lobobrowser.util.History$TimedEntry'
p4154
tp4155
a(g27
S'false'
p4156
tp4157
a(g30
S'equals'
p4158
tp4159
a(g33
S'(Ljava/lang/Object;)Z'
p4160
tp4161
a(g15
g36
tp4162
aa(lp4163
(g54
g55
tp4164
a(g57
g58
tp4165
a(g42
S'LOCAL_VARIABLE_NAMED'
p4166
tp4167
a(g30
S'obj'
p4168
tp4169
a(g15
g64
tp4170
aaa(lp4171
(lp4172
(g3
g4
tp4173
a(g6
S'BAD_PRACTICE'
p4174
tp4175
a(g9
S'Se'
p4176
tp4177
a(g12
S'SE_INNER_CLASS'
p4178
tp4179
a(g15
g16
tp4180
aa(lp4181
(g19
S'org.lobobrowser.util.History$TimedEntry'
p4182
tp4183
a(g15
g22
tp4184
aaa(lp4185
(lp4186
(g3
g4
tp4187
a(g6
S'PERFORMANCE'
p4188
tp4189
a(g9
S'SIC'
p4190
tp4191
a(g12
S'SIC_INNER_SHOULD_BE_STATIC'
p4192
tp4193
a(g15
g16
tp4194
aa(lp4195
(g19
S'org.lobobrowser.util.History$TimedEntry'
p4196
tp4197
a(g15
g22
tp4198
aaa(lp4199
(lp4200
(g3
g58
tp4201
a(g6
S'CORRECTNESS'
p4202
tp4203
a(g9
S'RV'
p4204
tp4205
a(g12
S'RV_ABSOLUTE_VALUE_OF_RANDOM_INT'
p4206
tp4207
a(g15
g16
tp4208
aa(lp4209
(g19
S'org.lobobrowser.util.ID'
p4210
tp4211
a(g15
g22
tp4212
aa(lp4213
(g19
S'org.lobobrowser.util.ID'
p4214
tp4215
a(g27
S'true'
p4216
tp4217
a(g30
S'random'
p4218
tp4219
a(g33
S'(II)I'
p4220
tp4221
a(g15
g36
tp4222
aa(lp4223
(g67
S'13'
p4224
tp4225
a(g69
S'107'
p4226
tp4227
a(g72
S'org/lobobrowser/util/ID.java'
p4228
tp4229
a(g75
S'ID.java'
p4230
tp4231
a(g19
S'org.lobobrowser.util.ID'
p4232
tp4233
a(g80
S'107'
p4234
tp4235
a(g83
S'13'
p4236
tp4237
a(g15
g85
tp4238
aaa(lp4239
(lp4240
(g3
g4
tp4241
a(g6
S'BAD_PRACTICE'
p4242
tp4243
a(g9
S'Eq'
p4244
tp4245
a(g12
S'EQ_COMPARETO_USE_OBJECT_EQUALS'
p4246
tp4247
a(g15
g16
tp4248
aa(lp4249
(g19
S'org.lobobrowser.util.LRUCache$OrderedValue'
p4250
tp4251
a(g15
g22
tp4252
aa(lp4253
(g19
S'org.lobobrowser.util.LRUCache$OrderedValue'
p4254
tp4255
a(g27
S'false'
p4256
tp4257
a(g30
S'compareTo'
p4258
tp4259
a(g33
S'(Ljava/lang/Object;)I'
p4260
tp4261
a(g15
g36
tp4262
aaa(lp4263
(lp4264
(g3
g4
tp4265
a(g6
S'BAD_PRACTICE'
p4266
tp4267
a(g9
S'Se'
p4268
tp4269
a(g12
S'SE_INNER_CLASS'
p4270
tp4271
a(g15
g16
tp4272
aa(lp4273
(g19
S'org.lobobrowser.util.LRUCache$OrderedValue'
p4274
tp4275
a(g15
g22
tp4276
aaa(lp4277
(lp4278
(g3
g4
tp4279
a(g6
S'PERFORMANCE'
p4280
tp4281
a(g9
S'SIC'
p4282
tp4283
a(g12
S'SIC_INNER_SHOULD_BE_STATIC'
p4284
tp4285
a(g15
g16
tp4286
aa(lp4287
(g19
S'org.lobobrowser.util.LRUCache$OrderedValue'
p4288
tp4289
a(g15
g22
tp4290
aaa(lp4291
(lp4292
(g3
g4
tp4293
a(g6
S'PERFORMANCE'
p4294
tp4295
a(g9
S'SIC'
p4296
tp4297
a(g12
S'SIC_INNER_SHOULD_BE_STATIC'
p4298
tp4299
a(g15
g16
tp4300
aa(lp4301
(g19
S'org.lobobrowser.util.LRUCache$RemovalDispatch'
p4302
tp4303
a(g15
g22
tp4304
aaa(lp4305
(lp4306
(g3
g58
tp4307
a(g6
S'MT_CORRECTNESS'
p4308
tp4309
a(g9
S'STCAL'
p4310
tp4311
a(g12
S'STCAL_STATIC_SIMPLE_DATE_FORMAT_INSTANCE'
p4312
tp4313
a(g15
g16
tp4314
aa(lp4315
(g19
S'org.lobobrowser.util.Urls'
p4316
tp4317
a(g15
g22
tp4318
aa(lp4319
(g19
S'org.lobobrowser.util.Urls'
p4320
tp4321
a(g27
S'true'
p4322
tp4323
a(g30
S'PATTERN_RFC1123'
p4324
tp4325
a(g33
S'Ljava/text/DateFormat;'
p4326
tp4327
a(g15
g122
tp4328
aaa(lp4329
(lp4330
(g3
g4
tp4331
a(g6
S'PERFORMANCE'
p4332
tp4333
a(g9
S'SIC'
p4334
tp4335
a(g12
S'SIC_INNER_SHOULD_BE_STATIC'
p4336
tp4337
a(g15
g16
tp4338
aa(lp4339
(g19
S'org.lobobrowser.util.WeakValueHashMap$LocalFilter'
p4340
tp4341
a(g15
g22
tp4342
aaa(lp4343
(lp4344
(g3
g4
tp4345
a(g6
S'BAD_PRACTICE'
p4346
tp4347
a(g9
S'NP'
p4348
tp4349
a(g12
S'NP_EQUALS_SHOULD_HANDLE_NULL_ARGUMENT'
p4350
tp4351
a(g15
g16
tp4352
aa(lp4353
(g19
S'org.lobobrowser.util.gui.FontFactory$FontKey'
p4354
tp4355
a(g15
g22
tp4356
aa(lp4357
(g19
S'org.lobobrowser.util.gui.FontFactory$FontKey'
p4358
tp4359
a(g27
S'false'
p4360
tp4361
a(g30
S'equals'
p4362
tp4363
a(g33
S'(Ljava/lang/Object;)Z'
p4364
tp4365
a(g15
g36
tp4366
aa(lp4367
(g54
g55
tp4368
a(g57
g58
tp4369
a(g42
S'LOCAL_VARIABLE_NAMED'
p4370
tp4371
a(g30
S'other'
p4372
tp4373
a(g15
g64
tp4374
aaa(lp4375
(lp4376
(g3
g58
tp4377
a(g6
S'CORRECTNESS'
p4378
tp4379
a(g9
S'RC'
p4380
tp4381
a(g12
S'RC_REF_COMPARISON'
p4382
tp4383
a(g15
g16
tp4384
aa(lp4385
(g19
S'org.lobobrowser.util.gui.FontFactory$FontKey'
p4386
tp4387
a(g15
g22
tp4388
aa(lp4389
(g19
S'org.lobobrowser.util.gui.FontFactory$FontKey'
p4390
tp4391
a(g27
S'false'
p4392
tp4393
a(g30
S'equals'
p4394
tp4395
a(g33
S'(Ljava/lang/Object;)Z'
p4396
tp4397
a(g15
g36
tp4398
aa(lp4399
(g39
S'Ljava/lang/Integer;'
p4400
tp4401
a(g42
S'TYPE_FOUND'
p4402
tp4403
a(g15
g45
tp4404
aa(lp4405
(g19
S'org.lobobrowser.util.gui.FontFactory$FontKey'
p4406
tp4407
a(g27
S'false'
p4408
tp4409
a(g42
S'FIELD_VALUE_OF'
p4410
tp4411
a(g30
S'superscript'
p4412
tp4413
a(g33
S'Ljava/lang/Integer;'
p4414
tp4415
a(g15
g122
tp4416
aa(lp4417
(g67
S'82'
p4418
tp4419
a(g69
S'261'
p4420
tp4421
a(g72
S'org/lobobrowser/util/gui/FontFactory.java'
p4422
tp4423
a(g75
S'FontFactory.java'
p4424
tp4425
a(g19
S'org.lobobrowser.util.gui.FontFactory$FontKey'
p4426
tp4427
a(g80
S'261'
p4428
tp4429
a(g83
S'82'
p4430
tp4431
a(g15
g85
tp4432
aaa(lp4433
(lp4434
(g3
g58
tp4435
a(g6
S'I18N'
p4436
tp4437
a(g9
S'Dm'
p4438
tp4439
a(g12
S'DM_DEFAULT_ENCODING'
p4440
tp4441
a(g15
g16
tp4442
aa(lp4443
(g19
S'org.lobobrowser.util.io.IORoutines'
p4444
tp4445
a(g15
g22
tp4446
aa(lp4447
(g19
S'org.lobobrowser.util.io.IORoutines'
p4448
tp4449
a(g27
S'true'
p4450
tp4451
a(g30
S'loadStrings'
p4452
tp4453
a(g33
S'(Ljava/io/File;)Ljava/util/List;'
p4454
tp4455
a(g15
g36
tp4456
aa(lp4457
(g19
S'java.io.InputStreamReader'
p4458
tp4459
a(g27
S'false'
p4460
tp4461
a(g42
S'METHOD_CALLED'
p4462
tp4463
a(g30
S'<init>'
p4464
tp4465
a(g33
S'(Ljava/io/InputStream;)V'
p4466
tp4467
a(g15
g36
tp4468
aa(lp4469
(g67
S'26'
p4470
tp4471
a(g69
S'191'
p4472
tp4473
a(g72
S'org/lobobrowser/util/io/IORoutines.java'
p4474
tp4475
a(g75
S'IORoutines.java'
p4476
tp4477
a(g19
S'org.lobobrowser.util.io.IORoutines'
p4478
tp4479
a(g80
S'191'
p4480
tp4481
a(g83
S'26'
p4482
tp4483
a(g15
g85
tp4484
aaa(lp4485
(lp4486
(g3
g58
tp4487
a(g6
S'I18N'
p4488
tp4489
a(g9
S'Dm'
p4490
tp4491
a(g12
S'DM_DEFAULT_ENCODING'
p4492
tp4493
a(g15
g16
tp4494
aa(lp4495
(g19
S'org.lobobrowser.util.io.IORoutines'
p4496
tp4497
a(g15
g22
tp4498
aa(lp4499
(g19
S'org.lobobrowser.util.io.IORoutines'
p4500
tp4501
a(g27
S'true'
p4502
tp4503
a(g30
S'saveStrings'
p4504
tp4505
a(g33
S'(Ljava/io/File;Ljava/util/Collection;)V'
p4506
tp4507
a(g15
g36
tp4508
aa(lp4509
(g19
S'java.io.PrintWriter'
p4510
tp4511
a(g27
S'false'
p4512
tp4513
a(g42
S'METHOD_CALLED'
p4514
tp4515
a(g30
S'<init>'
p4516
tp4517
a(g33
S'(Ljava/io/OutputStream;)V'
p4518
tp4519
a(g15
g36
tp4520
aa(lp4521
(g67
S'21'
p4522
tp4523
a(g69
S'175'
p4524
tp4525
a(g72
S'org/lobobrowser/util/io/IORoutines.java'
p4526
tp4527
a(g75
S'IORoutines.java'
p4528
tp4529
a(g19
S'org.lobobrowser.util.io.IORoutines'
p4530
tp4531
a(g80
S'175'
p4532
tp4533
a(g83
S'21'
p4534
tp4535
a(g15
g85
tp4536
aaa(lp4537
(lp4538
(g3
g4
tp4539
a(g6
S'MALICIOUS_CODE'
p4540
tp4541
a(g9
S'MS'
p4542
tp4543
a(g12
S'MS_MUTABLE_ARRAY'
p4544
tp4545
a(g15
g16
tp4546
aa(lp4547
(g19
S'org.lobobrowser.util.io.IORoutines'
p4548
tp4549
a(g15
g22
tp4550
aa(lp4551
(g19
S'org.lobobrowser.util.io.IORoutines'
p4552
tp4553
a(g27
S'true'
p4554
tp4555
a(g30
S'LINE_BREAK_BYTES'
p4556
tp4557
a(g33
S'[B'
p4558
tp4559
a(g15
g122
tp4560
aa(lp4561
(g67
S'13'
p4562
tp4563
a(g69
S'32'
p4564
tp4565
a(g72
S'org/lobobrowser/util/io/IORoutines.java'
p4566
tp4567
a(g75
S'IORoutines.java'
p4568
tp4569
a(g19
S'org.lobobrowser.util.io.IORoutines'
p4570
tp4571
a(g80
S'32'
p4572
tp4573
a(g83
S'13'
p4574
tp4575
a(g15
g85
tp4576
aaa(lp4577
(lp4578
(g3
g4
tp4579
a(g6
S'BAD_PRACTICE'
p4580
tp4581
a(g9
S'OS'
p4582
tp4583
a(g12
S'OS_OPEN_STREAM'
p4584
tp4585
a(g15
g16
tp4586
aa(lp4587
(g19
S'org.lobobrowser.util.io.IORoutines'
p4588
tp4589
a(g15
g22
tp4590
aa(lp4591
(g19
S'org.lobobrowser.util.io.IORoutines'
p4592
tp4593
a(g27
S'true'
p4594
tp4595
a(g30
S'loadStrings'
p4596
tp4597
a(g33
S'(Ljava/io/File;)Ljava/util/List;'
p4598
tp4599
a(g15
g36
tp4600
aa(lp4601
(g39
S'Ljava/io/Reader;'
p4602
tp4603
a(g42
S'TYPE_CLOSEIT'
p4604
tp4605
a(g15
g45
tp4606
aa(lp4607
(g67
S'17'
p4608
tp4609
a(g69
S'191'
p4610
tp4611
a(g72
S'org/lobobrowser/util/io/IORoutines.java'
p4612
tp4613
a(g75
S'IORoutines.java'
p4614
tp4615
a(g19
S'org.lobobrowser.util.io.IORoutines'
p4616
tp4617
a(g80
S'191'
p4618
tp4619
a(g83
S'17'
p4620
tp4621
a(g15
g85
tp4622
aaa(lp4623
(lp4624
(g3
g4
tp4625
a(g6
S'BAD_PRACTICE'
p4626
tp4627
a(g9
S'OS'
p4628
tp4629
a(g12
S'OS_OPEN_STREAM'
p4630
tp4631
a(g15
g16
tp4632
aa(lp4633
(g19
S'org.lobobrowser.util.io.IORoutines'
p4634
tp4635
a(g15
g22
tp4636
aa(lp4637
(g19
S'org.lobobrowser.util.io.IORoutines'
p4638
tp4639
a(g27
S'true'
p4640
tp4641
a(g30
S'saveStrings'
p4642
tp4643
a(g33
S'(Ljava/io/File;Ljava/util/Collection;)V'
p4644
tp4645
a(g15
g36
tp4646
aa(lp4647
(g39
S'Ljava/io/Writer;'
p4648
tp4649
a(g42
S'TYPE_CLOSEIT'
p4650
tp4651
a(g15
g45
tp4652
aa(lp4653
(g67
S'16'
p4654
tp4655
a(g69
S'175'
p4656
tp4657
a(g72
S'org/lobobrowser/util/io/IORoutines.java'
p4658
tp4659
a(g75
S'IORoutines.java'
p4660
tp4661
a(g19
S'org.lobobrowser.util.io.IORoutines'
p4662
tp4663
a(g80
S'175'
p4664
tp4665
a(g83
S'16'
p4666
tp4667
a(g15
g85
tp4668
aaa(lp4669
(lp4670
(g3
g4
tp4671
a(g6
S'BAD_PRACTICE'
p4672
tp4673
a(g9
S'RV'
p4674
tp4675
a(g12
S'RV_RETURN_VALUE_IGNORED_BAD_PRACTICE'
p4676
tp4677
a(g15
g16
tp4678
aa(lp4679
(g19
S'org.lobobrowser.util.io.IORoutines'
p4680
tp4681
a(g15
g22
tp4682
aa(lp4683
(g19
S'org.lobobrowser.util.io.IORoutines'
p4684
tp4685
a(g27
S'true'
p4686
tp4687
a(g30
S'touch'
p4688
tp4689
a(g33
S'(Ljava/io/File;)V'
p4690
tp4691
a(g15
g36
tp4692
aa(lp4693
(g19
S'java.io.File'
p4694
tp4695
a(g27
S'false'
p4696
tp4697
a(g42
S'METHOD_CALLED'
p4698
tp4699
a(g30
S'setLastModified'
p4700
tp4701
a(g33
S'(J)Z'
p4702
tp4703
a(g15
g36
tp4704
aa(lp4705
(g67
g177
tp4706
a(g69
S'169'
p4707
tp4708
a(g72
S'org/lobobrowser/util/io/IORoutines.java'
p4709
tp4710
a(g75
S'IORoutines.java'
p4711
tp4712
a(g19
S'org.lobobrowser.util.io.IORoutines'
p4713
tp4714
a(g80
S'169'
p4715
tp4716
a(g83
g177
tp4717
a(g15
g85
tp4718
aaa(lp4719
(lp4720
(g3
g4
tp4721
a(g6
S'MT_CORRECTNESS'
p4722
tp4723
a(g9
S'DC'
p4724
tp4725
a(g12
S'DC_DOUBLECHECK'
p4726
tp4727
a(g15
g16
tp4728
aa(lp4729
(g19
S'org.xamjwg.platform.PlatformAccess'
p4730
tp4731
a(g15
g22
tp4732
aa(lp4733
(g19
S'org.xamjwg.platform.PlatformAccess'
p4734
tp4735
a(g27
S'true'
p4736
tp4737
a(g30
S'getInstance'
p4738
tp4739
a(g33
S'()Lorg/xamjwg/platform/PlatformAccess;'
p4740
tp4741
a(g15
g36
tp4742
aa(lp4743
(g19
S'org.xamjwg.platform.PlatformAccess'
p4744
tp4745
a(g27
S'true'
p4746
tp4747
a(g42
S'FIELD_ON'
p4748
tp4749
a(g30
S'instance'
p4750
tp4751
a(g33
S'Lorg/xamjwg/platform/PlatformAccess;'
p4752
tp4753
a(g15
g122
tp4754
aa(lp4755
(g67
S'14'
p4756
tp4757
a(g69
S'55'
p4758
tp4759
a(g72
S'org/xamjwg/platform/PlatformAccess.java'
p4760
tp4761
a(g75
S'PlatformAccess.java'
p4762
tp4763
a(g19
S'org.xamjwg.platform.PlatformAccess'
p4764
tp4765
a(g80
S'53'
p4766
tp4767
a(g83
g137
tp4768
a(g15
g85
tp4769
aaa.