(lp0
ccopy_reg
_reconstructor
p1
(canalyzer_helpers
FB_Bug
p2
c__builtin__
object
p3
Ntp4
Rp5
(dp6
S'_methodclassname'
p7
S'org.lobobrowser.util.gui.FontFactory$FontKey'
p8
sS'_start_line'
p9
I261
sS'_methodcontext'
p10
S''
p11
sS'_isstatic'
p12
g11
sS'_category'
p13
S'CORRECTNESS'
p14
sS'_methodcontextname'
p15
g11
sS'_methodname'
p16
S'equals'
p17
sS'_bugtype'
p18
S'RC_REF_COMPARISON'
p19
sS'_rank'
p20
I1
sS'_abbrev'
p21
S'RC'
p22
sS'_priority'
p23
S'1'
p24
sS'_methodrole'
p25
g11
sS'_classname'
p26
S'org.lobobrowser.util.gui.FontFactory$FontKey'
p27
sS'_src_file'
p28
S'FontFactory.java'
p29
sS'_raw_bug_info'
p30
(lp31
sS'clabel'
p32
g11
sS'_end_line'
p33
I261
sbag1
(g2
g3
Ntp34
Rp35
(dp36
g7
S'org.lobobrowser.request.CookieStore'
p37
sg9
I115
sg10
S'java.lang.String'
p38
sg12
g11
sg13
S'CORRECTNESS'
p39
sg15
S'equalsIgnoreCase'
p40
sg16
S'saveCookie'
p41
sg18
S'RV_RETURN_VALUE_IGNORED'
p42
sg20
I3
sg21
S'RV'
p43
sg23
S'2'
p44
sg25
S'METHOD_CALLED'
p45
sg26
S'org.lobobrowser.request.CookieStore'
p46
sg28
S'CookieStore.java'
p47
sg30
(lp48
sg32
g11
sg33
I115
sbag1
(g2
g3
Ntp49
Rp50
(dp51
g7
S'org.lobobrowser.request.ClientletResponseImpl'
p52
sg9
I355
sg10
g11
sg12
g11
sg13
S'CORRECTNESS'
p53
sg15
g11
sg16
S'getTransientCachedObjectSize'
p54
sg18
S'NP_NULL_ON_SOME_PATH'
p55
sg20
I6
sg21
S'NP'
p56
sg23
g24
sg25
g11
sg26
S'org.lobobrowser.request.ClientletResponseImpl'
p57
sg28
S'ClientletResponseImpl.java'
p58
sg30
(lp59
sg32
g11
sg33
I355
sbag1
(g2
g3
Ntp60
Rp61
(dp62
g7
S'org.lobobrowser.request.ClientletResponseImpl'
p63
sg9
I389
sg10
S'java.text.DateFormat'
p64
sg12
g11
sg13
S'MT_CORRECTNESS'
p65
sg15
S'parse'
p66
sg16
S'getDate'
p67
sg18
S'STCAL_INVOKE_ON_STATIC_DATE_FORMAT_INSTANCE'
p68
sg20
I6
sg21
S'STCAL'
p69
sg23
g44
sg25
S'METHOD_CALLED'
p70
sg26
S'org.lobobrowser.request.ClientletResponseImpl'
p71
sg28
S'ClientletResponseImpl.java'
p72
sg30
(lp73
sg32
g11
sg33
I389
sbag1
(g2
g3
Ntp74
Rp75
(dp76
g7
S'org.lobobrowser.request.RequestEngine$2'
p77
sg9
I438
sg10
S'java.text.DateFormat'
p78
sg12
g11
sg13
S'MT_CORRECTNESS'
p79
sg15
S'format'
p80
sg16
S'run'
p81
sg18
S'STCAL_INVOKE_ON_STATIC_DATE_FORMAT_INSTANCE'
p82
sg20
I6
sg21
S'STCAL'
p83
sg23
g44
sg25
S'METHOD_CALLED'
p84
sg26
S'org.lobobrowser.request.RequestEngine$2'
p85
sg28
S'RequestEngine.java'
p86
sg30
(lp87
sg32
g11
sg33
I438
sbag1
(g2
g3
Ntp88
Rp89
(dp90
g7
S'org.lobobrowser.main.ReuseServer'
p91
sg9
I49
sg10
g11
sg12
g11
sg13
S'CORRECTNESS'
p92
sg15
g11
sg16
S'getRandomPort'
p93
sg18
S'RV_ABSOLUTE_VALUE_OF_RANDOM_INT'
p94
sg20
I7
sg21
S'RV'
p95
sg23
g24
sg25
g11
sg26
S'org.lobobrowser.main.ReuseServer'
p96
sg28
S'ReuseServer.java'
p97
sg30
(lp98
sg32
g11
sg33
I49
sbag1
(g2
g3
Ntp99
Rp100
(dp101
g7
S'org.lobobrowser.util.ID'
p102
sg9
I107
sg10
g11
sg12
g11
sg13
S'CORRECTNESS'
p103
sg15
g11
sg16
S'random'
p104
sg18
S'RV_ABSOLUTE_VALUE_OF_RANDOM_INT'
p105
sg20
I7
sg21
S'RV'
p106
sg23
g24
sg25
g11
sg26
S'org.lobobrowser.util.ID'
p107
sg28
S'ID.java'
p108
sg30
(lp109
sg32
g11
sg33
I107
sbag1
(g2
g3
Ntp110
Rp111
(dp112
g7
S'org.lobobrowser.request.RequestEngine'
p113
sg9
I207
sg10
g11
sg12
g11
sg13
S'CORRECTNESS'
p114
sg15
g11
sg16
S'postData'
p115
sg18
S'RCN_REDUNDANT_NULLCHECK_WOULD_HAVE_BEEN_A_NPE'
p116
sg20
I9
sg21
S'RCN'
p117
sg23
g24
sg25
g11
sg26
S'org.lobobrowser.request.RequestEngine'
p118
sg28
S'RequestEngine.java'
p119
sg30
(lp120
sg32
g11
sg33
I207
sbag1
(g2
g3
Ntp121
Rp122
(dp123
g7
S'org.lobobrowser.util.History$TimedEntry'
p124
sg9
I0
sg10
g11
sg12
g11
sg13
S'BAD_PRACTICE'
p125
sg15
g11
sg16
S'equals'
p126
sg18
S'NP_EQUALS_SHOULD_HANDLE_NULL_ARGUMENT'
p127
sg20
I9
sg21
S'NP'
p128
sg23
g44
sg25
g11
sg26
S'org.lobobrowser.util.History$TimedEntry'
p129
sg28
g11
sg30
(lp130
sg32
g11
sg33
I0
sbag1
(g2
g3
Ntp131
Rp132
(dp133
g7
S'org.lobobrowser.util.gui.FontFactory$FontKey'
p134
sg9
I0
sg10
g11
sg12
g11
sg13
S'BAD_PRACTICE'
p135
sg15
g11
sg16
S'equals'
p136
sg18
S'NP_EQUALS_SHOULD_HANDLE_NULL_ARGUMENT'
p137
sg20
I9
sg21
S'NP'
p138
sg23
g44
sg25
g11
sg26
S'org.lobobrowser.util.gui.FontFactory$FontKey'
p139
sg28
g11
sg30
(lp140
sg32
g11
sg33
I0
sbag1
(g2
g3
Ntp141
Rp142
(dp143
g7
S'org.lobobrowser.context.ClientletFactory'
p144
sg9
I39
sg10
g11
sg12
g11
sg13
S'MT_CORRECTNESS'
p145
sg15
g11
sg16
S'getInstance'
p146
sg18
S'DC_DOUBLECHECK'
p147
sg20
I12
sg21
S'DC'
p148
sg23
g44
sg25
g11
sg26
S'org.lobobrowser.context.ClientletFactory'
p149
sg28
S'ClientletFactory.java'
p150
sg30
(lp151
sg32
g11
sg33
I43
sbag1
(g2
g3
Ntp152
Rp153
(dp154
g7
S'org.lobobrowser.store.CacheManager'
p155
sg9
I66
sg10
g11
sg12
g11
sg13
S'MT_CORRECTNESS'
p156
sg15
g11
sg16
S'getInstance'
p157
sg18
S'DC_DOUBLECHECK'
p158
sg20
I12
sg21
S'DC'
p159
sg23
g44
sg25
g11
sg26
S'org.lobobrowser.store.CacheManager'
p160
sg28
S'CacheManager.java'
p161
sg30
(lp162
sg32
g11
sg33
I68
sbag1
(g2
g3
Ntp163
Rp164
(dp165
g7
S'org.lobobrowser.store.CacheManager'
p166
sg9
I254
sg10
g11
sg12
g11
sg13
S'MT_CORRECTNESS'
p167
sg15
g11
sg16
S'sweepCache'
p168
sg18
S'SWL_SLEEP_WITH_LOCK_HELD'
p169
sg20
I12
sg21
S'SWL'
p170
sg23
g44
sg25
g11
sg26
S'org.lobobrowser.store.CacheManager'
p171
sg28
S'CacheManager.java'
p172
sg30
(lp173
sg32
g11
sg33
I254
sbag1
(g2
g3
Ntp174
Rp175
(dp176
g7
S'org.lobobrowser.store.StorageManager'
p177
sg9
I65
sg10
g11
sg12
g11
sg13
S'MT_CORRECTNESS'
p178
sg15
g11
sg16
S'ensureThreadStarted'
p179
sg18
S'DC_DOUBLECHECK'
p180
sg20
I12
sg21
S'DC'
p181
sg23
g44
sg25
g11
sg26
S'org.lobobrowser.store.StorageManager'
p182
sg28
S'StorageManager.java'
p183
sg30
(lp184
sg32
g11
sg33
I67
sbag1
(g2
g3
Ntp185
Rp186
(dp187
g7
S'org.lobobrowser.store.TempFileManager'
p188
sg9
I46
sg10
g11
sg12
g11
sg13
S'MT_CORRECTNESS'
p189
sg15
g11
sg16
S'getInstance'
p190
sg18
S'DC_DOUBLECHECK'
p191
sg20
I12
sg21
S'DC'
p192
sg23
g44
sg25
g11
sg26
S'org.lobobrowser.store.TempFileManager'
p193
sg28
S'TempFileManager.java'
p194
sg30
(lp195
sg32
g11
sg33
I48
sbag1
(g2
g3
Ntp196
Rp197
(dp198
g7
g11
sg9
I0
sg10
g11
sg12
g11
sg13
S'MT_CORRECTNESS'
p199
sg15
g11
sg16
g11
sg18
S'STCAL_STATIC_SIMPLE_DATE_FORMAT_INSTANCE'
p200
sg20
I12
sg21
S'STCAL'
p201
sg23
g24
sg25
g11
sg26
S'org.lobobrowser.util.Urls'
p202
sg28
g11
sg30
(lp203
sg32
g11
sg33
I0
sbag1
(g2
g3
Ntp204
Rp205
(dp206
g7
S'org.xamjwg.platform.PlatformAccess'
p207
sg9
I53
sg10
g11
sg12
g11
sg13
S'MT_CORRECTNESS'
p208
sg15
g11
sg16
S'getInstance'
p209
sg18
S'DC_DOUBLECHECK'
p210
sg20
I12
sg21
S'DC'
p211
sg23
g44
sg25
g11
sg26
S'org.xamjwg.platform.PlatformAccess'
p212
sg28
S'PlatformAccess.java'
p213
sg30
(lp214
sg32
g11
sg33
I55
sbag1
(g2
g3
Ntp215
Rp216
(dp217
g7
g11
sg9
I174
sg10
g11
sg12
g11
sg13
S'BAD_PRACTICE'
p218
sg15
g11
sg16
g11
sg18
S'SE_BAD_FIELD_STORE'
p219
sg20
I14
sg21
S'Se'
p220
sg23
g44
sg25
g11
sg26
S'org.lobobrowser.gui.BrowserPanel'
p221
sg28
S'BrowserPanel.java'
p222
sg30
(lp223
sg32
g11
sg33
I174
sbag1
(g2
g3
Ntp224
Rp225
(dp226
g7
g11
sg9
I44
sg10
g11
sg12
g11
sg13
S'BAD_PRACTICE'
p227
sg15
g11
sg16
g11
sg18
S'SE_BAD_FIELD_STORE'
p228
sg20
I14
sg21
S'Se'
p229
sg23
g44
sg25
g11
sg26
S'org.lobobrowser.gui.ConsoleModel'
p230
sg28
S'ConsoleModel.java'
p231
sg30
(lp232
sg32
g11
sg33
I44
sbag1
(g2
g3
Ntp233
Rp234
(dp235
g7
S'org.lobobrowser.main.Extension'
p236
sg9
I91
sg10
g11
sg12
g11
sg13
S'BAD_PRACTICE'
p237
sg15
g11
sg16
S'<init>'
p238
sg18
S'OS_OPEN_STREAM'
p239
sg20
I14
sg21
S'OS'
p240
sg23
g44
sg25
g11
sg26
S'org.lobobrowser.main.Extension'
p241
sg28
S'Extension.java'
p242
sg30
(lp243
sg32
g11
sg33
I91
sba.