(lp0
ccopy_reg
_reconstructor
p1
(canalyzer_helpers
FB_PackageDefectDensity
p2
c__builtin__
object
p3
Ntp4
Rp5
(dp6
S'_NCSS'
p7
S'362'
p8
sS'_buglist'
p9
(lp10
g1
(canalyzer_helpers
FB_Bug
p11
g3
Ntp12
Rp13
(dp14
S'_methodclassname'
p15
S'java.io.InputStreamReader'
p16
sS'_methodrole'
p17
S'METHOD_CALLED'
p18
sS'_isstatic'
p19
S''
p20
sS'_category'
p21
S'I18N'
p22
sS'_bugtype'
p23
S'DM_DEFAULT_ENCODING'
p24
sS'_rank'
p25
I19
sS'_abbrev'
p26
S'Dm'
p27
sS'_priority'
p28
S'1'
p29
sS'_classname'
p30
S'edu.uci.ics.crawler4j.url.TLDList'
p31
sS'_raw_bug_info'
p32
(lp33
sbag1
(g11
g3
Ntp34
Rp35
(dp36
g15
g20
sg17
g20
sg19
g20
sg21
S'BAD_PRACTICE'
p37
sg23
S'DM_EXIT'
p38
sg25
I14
sg26
S'Dm'
p39
sg28
S'2'
p40
sg30
S'edu.uci.ics.crawler4j.url.TLDList'
p41
sg32
(lp42
sbag1
(g11
g3
Ntp43
Rp44
(dp45
g15
g20
sg17
g20
sg19
g20
sg21
S'PERFORMANCE'
p46
sg23
S'SS_SHOULD_BE_STATIC'
p47
sg25
I16
sg26
S'SS'
p48
sg28
g40
sg30
S'edu.uci.ics.crawler4j.url.TLDList'
p49
sg32
(lp50
sbag1
(g11
g3
Ntp51
Rp52
(dp53
g15
g20
sg17
S'LOCAL_VARIABLE_VALUE_OF'
p54
sg19
g20
sg21
S'BAD_PRACTICE'
p55
sg23
S'ES_COMPARING_STRINGS_WITH_EQ'
p56
sg25
I9
sg26
S'ES'
p57
sg28
g29
sg30
S'edu.uci.ics.crawler4j.url.URLCanonicalizer'
p58
sg32
(lp59
sbag1
(g11
g3
Ntp60
Rp61
(dp62
g15
g20
sg17
g20
sg19
g20
sg21
S'STYLE'
p63
sg23
S'SF_SWITCH_NO_DEFAULT'
p64
sg25
I17
sg26
S'SF'
p65
sg28
g40
sg30
S'edu.uci.ics.crawler4j.url.URLCanonicalizer'
p66
sg32
(lp67
sbasS'_avgbugrank'
p68
I15
sS'_density'
p69
S'13.8'
p70
sS'_bugs'
p71
S'5'
p72
sS'_kind'
p73
S'package'
p74
sS'_name'
p75
S'edu.uci.ics.crawler4j.url'
p76
sS'_mostseverebugrank'
p77
I9
sbag1
(g2
g3
Ntp78
Rp79
(dp80
g7
S'599'
p81
sg9
(lp82
g1
(g11
g3
Ntp83
Rp84
(dp85
g15
g20
sg17
g20
sg19
g20
sg21
S'STYLE'
p86
sg23
S'REC_CATCH_EXCEPTION'
p87
sg25
I15
sg26
S'REC'
p88
sg28
g40
sg30
S'edu.uci.ics.crawler4j.crawler.CrawlController$1'
p89
sg32
(lp90
sbag1
(g11
g3
Ntp91
Rp92
(dp93
g15
g20
sg17
g20
sg19
g20
sg21
S'MALICIOUS_CODE'
p94
sg23
S'EI_EXPOSE_REP'
p95
sg25
I16
sg26
S'EI'
p96
sg28
g40
sg30
S'edu.uci.ics.crawler4j.crawler.Page'
p97
sg32
(lp98
sbag1
(g11
g3
Ntp99
Rp100
(dp101
g15
g20
sg17
g20
sg19
g20
sg21
S'MALICIOUS_CODE'
p102
sg23
S'EI_EXPOSE_REP'
p103
sg25
I16
sg26
S'EI'
p104
sg28
g40
sg30
S'edu.uci.ics.crawler4j.crawler.Page'
p105
sg32
(lp106
sbag1
(g11
g3
Ntp107
Rp108
(dp109
g15
g20
sg17
S'LOCAL_VARIABLE_NAMED'
p110
sg19
g20
sg21
S'MALICIOUS_CODE'
p111
sg23
S'EI_EXPOSE_REP2'
p112
sg25
I16
sg26
S'EI2'
p113
sg28
g40
sg30
S'edu.uci.ics.crawler4j.crawler.Page'
p114
sg32
(lp115
sbag1
(g11
g3
Ntp116
Rp117
(dp118
g15
g20
sg17
S'LOCAL_VARIABLE_NAMED'
p119
sg19
g20
sg21
S'MALICIOUS_CODE'
p120
sg23
S'EI_EXPOSE_REP2'
p121
sg25
I16
sg26
S'EI2'
p122
sg28
g40
sg30
S'edu.uci.ics.crawler4j.crawler.Page'
p123
sg32
(lp124
sbasg68
I15
sg69
S'8.3'
p125
sg71
g72
sg73
S'package'
p126
sg75
S'edu.uci.ics.crawler4j.crawler'
p127
sg77
I15
sbag1
(g2
g3
Ntp128
Rp129
(dp130
g7
S'468'
p131
sg9
(lp132
g1
(g11
g3
Ntp133
Rp134
(dp135
g15
S'java.lang.String'
p136
sg17
S'METHOD_CALLED'
p137
sg19
g20
sg21
S'I18N'
p138
sg23
S'DM_DEFAULT_ENCODING'
p139
sg25
I19
sg26
S'Dm'
p140
sg28
g29
sg30
S'edu.uci.ics.crawler4j.frontier.Counters'
p141
sg32
(lp142
sbag1
(g11
g3
Ntp143
Rp144
(dp145
g15
S'java.lang.String'
p146
sg17
S'METHOD_CALLED'
p147
sg19
g20
sg21
S'I18N'
p148
sg23
S'DM_DEFAULT_ENCODING'
p149
sg25
I19
sg26
S'Dm'
p150
sg28
g29
sg30
S'edu.uci.ics.crawler4j.frontier.Counters'
p151
sg32
(lp152
sbag1
(g11
g3
Ntp153
Rp154
(dp155
g15
S'java.lang.Long'
p156
sg17
S'SHOULD_CALL'
p157
sg19
g20
sg21
S'PERFORMANCE'
p158
sg23
S'DM_NUMBER_CTOR'
p159
sg25
I16
sg26
S'Bx'
p160
sg28
g40
sg30
S'edu.uci.ics.crawler4j.frontier.Counters'
p161
sg32
(lp162
sbag1
(g11
g3
Ntp163
Rp164
(dp165
g15
S'java.lang.Long'
p166
sg17
S'SHOULD_CALL'
p167
sg19
g20
sg21
S'PERFORMANCE'
p168
sg23
S'DM_NUMBER_CTOR'
p169
sg25
I16
sg26
S'Bx'
p170
sg28
g40
sg30
S'edu.uci.ics.crawler4j.frontier.Counters'
p171
sg32
(lp172
sbag1
(g11
g3
Ntp173
Rp174
(dp175
g15
g20
sg17
g20
sg19
g20
sg21
S'PERFORMANCE'
p176
sg23
S'SIC_INNER_SHOULD_BE_STATIC'
p177
sg25
I16
sg26
S'SIC'
p178
sg28
g40
sg30
S'edu.uci.ics.crawler4j.frontier.Counters$ReservedCounterNames'
p179
sg32
(lp180
sbag1
(g11
g3
Ntp181
Rp182
(dp183
g15
S'java.lang.String'
p184
sg17
S'METHOD_CALLED'
p185
sg19
g20
sg21
S'I18N'
p186
sg23
S'DM_DEFAULT_ENCODING'
p187
sg25
I19
sg26
S'Dm'
p188
sg28
g29
sg30
S'edu.uci.ics.crawler4j.frontier.DocIDServer'
p189
sg32
(lp190
sbag1
(g11
g3
Ntp191
Rp192
(dp193
g15
S'java.lang.String'
p194
sg17
S'METHOD_CALLED'
p195
sg19
g20
sg21
S'I18N'
p196
sg23
S'DM_DEFAULT_ENCODING'
p197
sg25
I19
sg26
S'Dm'
p198
sg28
g29
sg30
S'edu.uci.ics.crawler4j.frontier.DocIDServer'
p199
sg32
(lp200
sbag1
(g11
g3
Ntp201
Rp202
(dp203
g15
S'java.lang.String'
p204
sg17
S'METHOD_CALLED'
p205
sg19
g20
sg21
S'I18N'
p206
sg23
S'DM_DEFAULT_ENCODING'
p207
sg25
I19
sg26
S'Dm'
p208
sg28
g29
sg30
S'edu.uci.ics.crawler4j.frontier.DocIDServer'
p209
sg32
(lp210
sbag1
(g11
g3
Ntp211
Rp212
(dp213
g15
g20
sg17
g20
sg19
g20
sg21
S'MT_CORRECTNESS'
p214
sg23
S'UW_UNCOND_WAIT'
p215
sg25
I12
sg26
S'UW'
p216
sg28
g40
sg30
S'edu.uci.ics.crawler4j.frontier.Frontier'
p217
sg32
(lp218
sbasg68
I17
sg69
S'19.2'
p219
sg71
S'9'
p220
sg73
S'package'
p221
sg75
S'edu.uci.ics.crawler4j.frontier'
p222
sg77
I12
sba.